GAS LISTING /tmp/ccPLkBqf.s 			page 1


   1               		.file	"adcTest.ino.ino.cpp"
   2               	__SP_H__ = 0x3e
   3               	__SP_L__ = 0x3d
   4               	__SREG__ = 0x3f
   5               	__RAMPZ__ = 0x3b
   6               	__tmp_reg__ = 0
   7               	__zero_reg__ = 1
   8               		.text
   9               	.Ltext0:
  10               		.cfi_sections	.debug_frame
  11               		.section	.text.__vector_21,"ax",@progbits
  12               	.global	__vector_21
  13               		.type	__vector_21, @function
  14               	__vector_21:
  15               	.LFB120:
  16               		.file 1 "/home/arhat109/Arduino/tests/adcTest.ino/adcTest.ino.ino"
   1:/home/arhat109/Arduino/tests/adcTest.ino/adcTest.ino.ino **** typedef enum {REF_AREF=0, REF_AVCC=64, REF_1V=128, REF_256V=192} ADCREF;
   2:/home/arhat109/Arduino/tests/adcTest.ino/adcTest.ino.ino **** typedef enum {TRIG_ROUND=0, TRIG_COMPARATOR, TRIG_INT0, TRIG_T0A, TRIG_T0OVF, TRIG_T1B, TRIG_T1OVF,
   3:/home/arhat109/Arduino/tests/adcTest.ino/adcTest.ino.ino **** typedef enum {
   4:/home/arhat109/Arduino/tests/adcTest.ino/adcTest.ino.ino ****   MUX_0=0, MUX_1, MUX_2, MUX_3, MUX_4, MUX_5, MUX_6, MUX_7,
   5:/home/arhat109/Arduino/tests/adcTest.ino/adcTest.ino.ino ****   MUX_G10_00, MUX_G10_10, MUX_G200_00, MUX_G200_10,
   6:/home/arhat109/Arduino/tests/adcTest.ino/adcTest.ino.ino ****   MUX_G10_22, MUX_G10_32, MUX_G200_22, MUX_G200_32,
   7:/home/arhat109/Arduino/tests/adcTest.ino/adcTest.ino.ino ****   MUX_D01, MUX_D11, MUX_D21, MUX_D31, MUX_D41, MUX_D51, MUX_D61, MUX_D71,
   8:/home/arhat109/Arduino/tests/adcTest.ino/adcTest.ino.ino ****   MUX_D02, MUX_D12, MUX_D22, MUX_D32, MUX_D42, MUX_D52,
   9:/home/arhat109/Arduino/tests/adcTest.ino/adcTest.ino.ino ****   MUX_1V,  MUX_GND,
  10:/home/arhat109/Arduino/tests/adcTest.ino/adcTest.ino.ino ****   MUX_8, MUX_9, MUX_A, MUX_B, MUX_C, MUX_D, MUX_E, MUX_F,
  11:/home/arhat109/Arduino/tests/adcTest.ino/adcTest.ino.ino ****   MUX_G10_88, MUX_G10_98, MUX_G200_88, MUX_G200_98,
  12:/home/arhat109/Arduino/tests/adcTest.ino/adcTest.ino.ino ****   MUX_G10_AA, MUX_G10_BA, MUX_G200_AA, MUX_G200_BA,
  13:/home/arhat109/Arduino/tests/adcTest.ino/adcTest.ino.ino ****   MUX_D89, MUX_D99, MUX_DA9, MUX_DB9, MUX_DC9, MUX_DD9, MUX_DE9, MUX_DF9,
  14:/home/arhat109/Arduino/tests/adcTest.ino/adcTest.ino.ino ****   MUX_D8A, MUX_D9A, MUX_DAA, MUX_DBA, MUX_DCA, MUX_DDA
  15:/home/arhat109/Arduino/tests/adcTest.ino/adcTest.ino.ino **** } ADCMUX;
  16:/home/arhat109/Arduino/tests/adcTest.ino/adcTest.ino.ino **** /*
  17:/home/arhat109/Arduino/tests/adcTest.ino/adcTest.ino.ino **** #define adcStart()   (ADCSRA |= ADSC)
  18:/home/arhat109/Arduino/tests/adcTest.ino/adcTest.ino.ino **** #define adc8bit()    (ADMUX |= ADLAR)
  19:/home/arhat109/Arduino/tests/adcTest.ino/adcTest.ino.ino **** #define adc10bit()   (ADMUX &= ~ADLAR)
  20:/home/arhat109/Arduino/tests/adcTest.ino/adcTest.ino.ino **** #define adcIntOn()   (ADCSRA |= ADIE)
  21:/home/arhat109/Arduino/tests/adcTest.ino/adcTest.ino.ino **** #define adcIntOff()  (ADCSRA &= ~ADIE)
  22:/home/arhat109/Arduino/tests/adcTest.ino/adcTest.ino.ino **** #define adc2comp()   (ADCSRB |= ACME)
  23:/home/arhat109/Arduino/tests/adcTest.ino/adcTest.ino.ino **** */
  24:/home/arhat109/Arduino/tests/adcTest.ino/adcTest.ino.ino **** // ADMUX:  REFS1(7), REFS0(6), ADLAR(5), MUX4..0
  25:/home/arhat109/Arduino/tests/adcTest.ino/adcTest.ino.ino **** // ADCSRA: ADEN(7), ADSC(6), ADATE(5), ADIF(4), ADIE(3), ADPS0..2
  26:/home/arhat109/Arduino/tests/adcTest.ino/adcTest.ino.ino **** // ADCSRB: ACME(6), ADMUX5(3),ADTS0..2
  27:/home/arhat109/Arduino/tests/adcTest.ino/adcTest.ino.ino **** // DIDR0:  Closed PINx for noise redusing ADC7..0
  28:/home/arhat109/Arduino/tests/adcTest.ino/adcTest.ino.ino **** // DIDR2:  Closed PINx for noise reducing ADC15..8
  29:/home/arhat109/Arduino/tests/adcTest.ino/adcTest.ino.ino **** // PRR0:   bit0=1 ADC power off!
  30:/home/arhat109/Arduino/tests/adcTest.ino/adcTest.ino.ino **** 
  31:/home/arhat109/Arduino/tests/adcTest.ino/adcTest.ino.ino **** extern "C" {
  32:/home/arhat109/Arduino/tests/adcTest.ino/adcTest.ino.ino **** #define ADC_GO    0
  33:/home/arhat109/Arduino/tests/adcTest.ino/adcTest.ino.ino **** #define ADC_START 1
  34:/home/arhat109/Arduino/tests/adcTest.ino/adcTest.ino.ino **** #define ADC_DONE  2
  35:/home/arhat109/Arduino/tests/adcTest.ino/adcTest.ino.ino **** 
  36:/home/arhat109/Arduino/tests/adcTest.ino/adcTest.ino.ino **** int                adcCount;  // how much need to read samples
  37:/home/arhat109/Arduino/tests/adcTest.ino/adcTest.ino.ino **** volatile uint8_t * adcBuffer; // pointer to buffer array
  38:/home/arhat109/Arduino/tests/adcTest.ino/adcTest.ino.ino **** volatile uint8_t   adcState = ADC_START;
  39:/home/arhat109/Arduino/tests/adcTest.ino/adcTest.ino.ino **** 
  40:/home/arhat109/Arduino/tests/adcTest.ino/adcTest.ino.ino **** ISR (ADC_vect, ISR_NAKED)
  41:/home/arhat109/Arduino/tests/adcTest.ino/adcTest.ino.ino **** {
GAS LISTING /tmp/ccPLkBqf.s 			page 2


  17               		.loc 1 41 0
  18               		.cfi_startproc
  19               	/* prologue: naked */
  20               	/* frame size = 0 */
  21               	/* stack size = 0 */
  22               	.L__stack_usage = 0
  42:/home/arhat109/Arduino/tests/adcTest.ino/adcTest.ino.ino ****   if( adcState == ADC_START ){
  23               		.loc 1 42 0
  24 0000 8091 0000 		lds r24,adcState
  25 0004 8130      		cpi r24,lo8(1)
  26 0006 01F4      		brne .L1
  43:/home/arhat109/Arduino/tests/adcTest.ino/adcTest.ino.ino ****     if( adcCount-- ){
  27               		.loc 1 43 0
  28 0008 8091 0000 		lds r24,adcCount
  29 000c 9091 0000 		lds r25,adcCount+1
  30 0010 9C01      		movw r18,r24
  31 0012 2150      		subi r18,1
  32 0014 3109      		sbc r19,__zero_reg__
  33 0016 3093 0000 		sts adcCount+1,r19
  34 001a 2093 0000 		sts adcCount,r18
  35 001e 0097      		sbiw r24,0
  36 0020 01F0      		breq .L3
  44:/home/arhat109/Arduino/tests/adcTest.ino/adcTest.ino.ino ****       *adcBuffer++ = ADCH;
  37               		.loc 1 44 0
  38 0022 E091 0000 		lds r30,adcBuffer
  39 0026 F091 0000 		lds r31,adcBuffer+1
  40 002a CF01      		movw r24,r30
  41 002c 0196      		adiw r24,1
  42 002e 9093 0000 		sts adcBuffer+1,r25
  43 0032 8093 0000 		sts adcBuffer,r24
  44 0036 85B1      		in r24,0x5
  45 0038 8083      		st Z,r24
  46 003a 00C0      		rjmp .L1
  47               	.L3:
  45:/home/arhat109/Arduino/tests/adcTest.ino/adcTest.ino.ino ****     }else{
  46:/home/arhat109/Arduino/tests/adcTest.ino/adcTest.ino.ino ****       adcState = ADC_DONE;
  48               		.loc 1 46 0
  49 003c 82E0      		ldi r24,lo8(2)
  50 003e 8093 0000 		sts adcState,r24
  47:/home/arhat109/Arduino/tests/adcTest.ino/adcTest.ino.ino ****       ADCSRA &= ~( _BV(ADIE)|_BV(ADFR) );
  51               		.loc 1 47 0
  52 0042 86B1      		in r24,0x6
  53 0044 877D      		andi r24,lo8(-41)
  54 0046 86B9      		out 0x6,r24
  55               	.L1:
  56               	/* epilogue start */
  48:/home/arhat109/Arduino/tests/adcTest.ino/adcTest.ino.ino ****     }
  49:/home/arhat109/Arduino/tests/adcTest.ino/adcTest.ino.ino ****   }
  50:/home/arhat109/Arduino/tests/adcTest.ino/adcTest.ino.ino **** }
  57               		.loc 1 50 0
  58               		.cfi_endproc
  59               	.LFE120:
  60               		.size	__vector_21, .-__vector_21
  61               		.section	.text.adcReadOne,"ax",@progbits
  62               	.global	adcReadOne
  63               		.type	adcReadOne, @function
  64               	adcReadOne:
GAS LISTING /tmp/ccPLkBqf.s 			page 3


  65               	.LFB121:
  51:/home/arhat109/Arduino/tests/adcTest.ino/adcTest.ino.ino **** 
  52:/home/arhat109/Arduino/tests/adcTest.ino/adcTest.ino.ino **** }
  53:/home/arhat109/Arduino/tests/adcTest.ino/adcTest.ino.ino **** 
  54:/home/arhat109/Arduino/tests/adcTest.ino/adcTest.ino.ino **** uint8_t adcReadOne()
  55:/home/arhat109/Arduino/tests/adcTest.ino/adcTest.ino.ino **** {
  66               		.loc 1 55 0
  67               		.cfi_startproc
  68               	/* prologue: function */
  69               	/* frame size = 0 */
  70               	/* stack size = 0 */
  71               	.L__stack_usage = 0
  56:/home/arhat109/Arduino/tests/adcTest.ino/adcTest.ino.ino ****     ADCSRA |= _BV(ADSC);
  72               		.loc 1 56 0
  73 0000 369A      		sbi 0x6,6
  74               	.L5:
  57:/home/arhat109/Arduino/tests/adcTest.ino/adcTest.ino.ino ****     while( ADCSRA & _BV(ADSC) );
  75               		.loc 1 57 0 discriminator 1
  76 0002 3699      		sbic 0x6,6
  77 0004 00C0      		rjmp .L5
  58:/home/arhat109/Arduino/tests/adcTest.ino/adcTest.ino.ino ****     return ADCH;
  78               		.loc 1 58 0
  79 0006 85B1      		in r24,0x5
  59:/home/arhat109/Arduino/tests/adcTest.ino/adcTest.ino.ino **** }
  80               		.loc 1 59 0
  81 0008 0895      		ret
  82               		.cfi_endproc
  83               	.LFE121:
  84               		.size	adcReadOne, .-adcReadOne
  85               		.section	.text.adcStart,"ax",@progbits
  86               	.global	adcStart
  87               		.type	adcStart, @function
  88               	adcStart:
  89               	.LFB122:
  60:/home/arhat109/Arduino/tests/adcTest.ino/adcTest.ino.ino **** 
  61:/home/arhat109/Arduino/tests/adcTest.ino/adcTest.ino.ino **** void adcStart(uint8_t * from, int len, uint8_t speed)
  62:/home/arhat109/Arduino/tests/adcTest.ino/adcTest.ino.ino **** {
  90               		.loc 1 62 0
  91               		.cfi_startproc
  92               	.LVL0:
  93               	/* prologue: function */
  94               	/* frame size = 0 */
  95               	/* stack size = 0 */
  96               	.L__stack_usage = 0
  63:/home/arhat109/Arduino/tests/adcTest.ino/adcTest.ino.ino ****   adcBuffer = from;
  97               		.loc 1 63 0
  98 0000 9093 0000 		sts adcBuffer+1,r25
  99 0004 8093 0000 		sts adcBuffer,r24
  64:/home/arhat109/Arduino/tests/adcTest.ino/adcTest.ino.ino ****   adcCount = len;
 100               		.loc 1 64 0
 101 0008 7093 0000 		sts adcCount+1,r23
 102 000c 6093 0000 		sts adcCount,r22
  65:/home/arhat109/Arduino/tests/adcTest.ino/adcTest.ino.ino ****   adcState = ADC_START;
 103               		.loc 1 65 0
 104 0010 81E0      		ldi r24,lo8(1)
 105               	.LVL1:
 106 0012 8093 0000 		sts adcState,r24
GAS LISTING /tmp/ccPLkBqf.s 			page 4


  66:/home/arhat109/Arduino/tests/adcTest.ino/adcTest.ino.ino ****   ADCSRA |= _BV(ADSC) | _BV(ADIE) | _BV(ADFR) | (0x03 & speed);
 107               		.loc 1 66 0
 108 0016 86B1      		in r24,0x6
 109 0018 8866      		ori r24,lo8(104)
 110 001a 4370      		andi r20,lo8(3)
 111               	.LVL2:
 112 001c 482B      		or r20,r24
 113 001e 46B9      		out 0x6,r20
 114               	.LVL3:
 115 0020 0895      		ret
 116               		.cfi_endproc
 117               	.LFE122:
 118               		.size	adcStart, .-adcStart
 119               		.section	.text.test,"ax",@progbits
 120               	.global	test
 121               		.type	test, @function
 122               	test:
 123               	.LFB123:
  67:/home/arhat109/Arduino/tests/adcTest.ino/adcTest.ino.ino **** }
  68:/home/arhat109/Arduino/tests/adcTest.ino/adcTest.ino.ino **** 
  69:/home/arhat109/Arduino/tests/adcTest.ino/adcTest.ino.ino **** #define MAX_BUF 400
  70:/home/arhat109/Arduino/tests/adcTest.ino/adcTest.ino.ino **** uint8_t adcs[MAX_BUF];
  71:/home/arhat109/Arduino/tests/adcTest.ino/adcTest.ino.ino **** 
  72:/home/arhat109/Arduino/tests/adcTest.ino/adcTest.ino.ino **** void test(int start, int len)
  73:/home/arhat109/Arduino/tests/adcTest.ino/adcTest.ino.ino **** {
 124               		.loc 1 73 0
 125               		.cfi_startproc
 126               	.LVL4:
 127 0000 EF92      		push r14
 128               	.LCFI0:
 129               		.cfi_def_cfa_offset 3
 130               		.cfi_offset 14, -2
 131 0002 FF92      		push r15
 132               	.LCFI1:
 133               		.cfi_def_cfa_offset 4
 134               		.cfi_offset 15, -3
 135 0004 0F93      		push r16
 136               	.LCFI2:
 137               		.cfi_def_cfa_offset 5
 138               		.cfi_offset 16, -4
 139 0006 1F93      		push r17
 140               	.LCFI3:
 141               		.cfi_def_cfa_offset 6
 142               		.cfi_offset 17, -5
 143 0008 CF93      		push r28
 144               	.LCFI4:
 145               		.cfi_def_cfa_offset 7
 146               		.cfi_offset 28, -6
 147 000a DF93      		push r29
 148               	.LCFI5:
 149               		.cfi_def_cfa_offset 8
 150               		.cfi_offset 29, -7
 151               	/* prologue: function */
 152               	/* frame size = 0 */
 153               	/* stack size = 6 */
 154               	.L__stack_usage = 6
 155 000c 7B01      		movw r14,r22
GAS LISTING /tmp/ccPLkBqf.s 			page 5


 156               	.LVL5:
 157               	.LBB2:
  74:/home/arhat109/Arduino/tests/adcTest.ino/adcTest.ino.ino ****   uint8_t* ptr = &adcs[start];
 158               		.loc 1 74 0
 159 000e EC01      		movw r28,r24
 160 0010 C050      		subi r28,lo8(-(adcs))
 161 0012 D040      		sbci r29,hi8(-(adcs))
 162 0014 8C01      		movw r16,r24
 163 0016 0C1B      		sub r16,r28
 164 0018 1D0B      		sbc r17,r29
 165               	.LVL6:
 166               	.L10:
 167 001a C801      		movw r24,r16
 168 001c 8C0F      		add r24,r28
 169 001e 9D1F      		adc r25,r29
 170               	.LBB3:
  75:/home/arhat109/Arduino/tests/adcTest.ino/adcTest.ino.ino **** 
  76:/home/arhat109/Arduino/tests/adcTest.ino/adcTest.ino.ino ****   for(int i=start; i<len; i++){
 171               		.loc 1 76 0 discriminator 1
 172 0020 8E15      		cp r24,r14
 173 0022 9F05      		cpc r25,r15
 174 0024 04F4      		brge .L12
 175               	.LVL7:
  77:/home/arhat109/Arduino/tests/adcTest.ino/adcTest.ino.ino ****     *(ptr++) = adcReadOne();
 176               		.loc 1 77 0 discriminator 3
 177 0026 0E94 0000 		call adcReadOne
 178               	.LVL8:
 179 002a 8993      		st Y+,r24
 180               	.LVL9:
 181 002c 00C0      		rjmp .L10
 182               	.L12:
 183               	/* epilogue start */
 184               	.LBE3:
 185               	.LBE2:
  78:/home/arhat109/Arduino/tests/adcTest.ino/adcTest.ino.ino ****   }
  79:/home/arhat109/Arduino/tests/adcTest.ino/adcTest.ino.ino **** }
 186               		.loc 1 79 0
 187 002e DF91      		pop r29
 188 0030 CF91      		pop r28
 189               	.LVL10:
 190 0032 1F91      		pop r17
 191 0034 0F91      		pop r16
 192 0036 FF90      		pop r15
 193 0038 EF90      		pop r14
 194               	.LVL11:
 195 003a 0895      		ret
 196               		.cfi_endproc
 197               	.LFE123:
 198               		.size	test, .-test
 199               		.section	.text.setup,"ax",@progbits
 200               	.global	setup
 201               		.type	setup, @function
 202               	setup:
 203               	.LFB124:
  80:/home/arhat109/Arduino/tests/adcTest.ino/adcTest.ino.ino **** 
  81:/home/arhat109/Arduino/tests/adcTest.ino/adcTest.ino.ino **** void setup() {
 204               		.loc 1 81 0
GAS LISTING /tmp/ccPLkBqf.s 			page 6


 205               		.cfi_startproc
 206               	/* prologue: function */
 207               	/* frame size = 0 */
 208               	/* stack size = 0 */
 209               	.L__stack_usage = 0
 210               	.LVL12:
 211               	.LBB6:
 212               	.LBB7:
 213               		.file 2 "/home/arhat109/.arduino15/packages/MegaCore/hardware/avr/1.0.6/cores/MegaCore/HardwareSer
   1:/home/arhat109/.arduino15/packages/MegaCore/hardware/avr/1.0.6/cores/MegaCore/HardwareSerial.h **** /*
   2:/home/arhat109/.arduino15/packages/MegaCore/hardware/avr/1.0.6/cores/MegaCore/HardwareSerial.h ****   HardwareSerial.h - Hardware serial library for Wiring
   3:/home/arhat109/.arduino15/packages/MegaCore/hardware/avr/1.0.6/cores/MegaCore/HardwareSerial.h ****   Copyright (c) 2006 Nicholas Zambetti.  All right reserved.
   4:/home/arhat109/.arduino15/packages/MegaCore/hardware/avr/1.0.6/cores/MegaCore/HardwareSerial.h **** 
   5:/home/arhat109/.arduino15/packages/MegaCore/hardware/avr/1.0.6/cores/MegaCore/HardwareSerial.h ****   This library is free software; you can redistribute it and/or
   6:/home/arhat109/.arduino15/packages/MegaCore/hardware/avr/1.0.6/cores/MegaCore/HardwareSerial.h ****   modify it under the terms of the GNU Lesser General Public
   7:/home/arhat109/.arduino15/packages/MegaCore/hardware/avr/1.0.6/cores/MegaCore/HardwareSerial.h ****   License as published by the Free Software Foundation; either
   8:/home/arhat109/.arduino15/packages/MegaCore/hardware/avr/1.0.6/cores/MegaCore/HardwareSerial.h ****   version 2.1 of the License, or (at your option) any later version.
   9:/home/arhat109/.arduino15/packages/MegaCore/hardware/avr/1.0.6/cores/MegaCore/HardwareSerial.h **** 
  10:/home/arhat109/.arduino15/packages/MegaCore/hardware/avr/1.0.6/cores/MegaCore/HardwareSerial.h ****   This library is distributed in the hope that it will be useful,
  11:/home/arhat109/.arduino15/packages/MegaCore/hardware/avr/1.0.6/cores/MegaCore/HardwareSerial.h ****   but WITHOUT ANY WARRANTY; without even the implied warranty of
  12:/home/arhat109/.arduino15/packages/MegaCore/hardware/avr/1.0.6/cores/MegaCore/HardwareSerial.h ****   MERCHANTABILITY or FITNESS FOR A PARTICULAR PURPOSE.  See the GNU
  13:/home/arhat109/.arduino15/packages/MegaCore/hardware/avr/1.0.6/cores/MegaCore/HardwareSerial.h ****   Lesser General Public License for more details.
  14:/home/arhat109/.arduino15/packages/MegaCore/hardware/avr/1.0.6/cores/MegaCore/HardwareSerial.h **** 
  15:/home/arhat109/.arduino15/packages/MegaCore/hardware/avr/1.0.6/cores/MegaCore/HardwareSerial.h ****   You should have received a copy of the GNU Lesser General Public
  16:/home/arhat109/.arduino15/packages/MegaCore/hardware/avr/1.0.6/cores/MegaCore/HardwareSerial.h ****   License along with this library; if not, write to the Free Software
  17:/home/arhat109/.arduino15/packages/MegaCore/hardware/avr/1.0.6/cores/MegaCore/HardwareSerial.h ****   Foundation, Inc., 51 Franklin St, Fifth Floor, Boston, MA  02110-1301  USA
  18:/home/arhat109/.arduino15/packages/MegaCore/hardware/avr/1.0.6/cores/MegaCore/HardwareSerial.h **** 
  19:/home/arhat109/.arduino15/packages/MegaCore/hardware/avr/1.0.6/cores/MegaCore/HardwareSerial.h ****   Modified 28 September 2010 by Mark Sproul
  20:/home/arhat109/.arduino15/packages/MegaCore/hardware/avr/1.0.6/cores/MegaCore/HardwareSerial.h ****   Modified 14 August 2012 by Alarus
  21:/home/arhat109/.arduino15/packages/MegaCore/hardware/avr/1.0.6/cores/MegaCore/HardwareSerial.h ****   Modified 3 December 2013 by Matthijs Kooijman
  22:/home/arhat109/.arduino15/packages/MegaCore/hardware/avr/1.0.6/cores/MegaCore/HardwareSerial.h **** */
  23:/home/arhat109/.arduino15/packages/MegaCore/hardware/avr/1.0.6/cores/MegaCore/HardwareSerial.h **** 
  24:/home/arhat109/.arduino15/packages/MegaCore/hardware/avr/1.0.6/cores/MegaCore/HardwareSerial.h **** #ifndef HardwareSerial_h
  25:/home/arhat109/.arduino15/packages/MegaCore/hardware/avr/1.0.6/cores/MegaCore/HardwareSerial.h **** #define HardwareSerial_h
  26:/home/arhat109/.arduino15/packages/MegaCore/hardware/avr/1.0.6/cores/MegaCore/HardwareSerial.h **** 
  27:/home/arhat109/.arduino15/packages/MegaCore/hardware/avr/1.0.6/cores/MegaCore/HardwareSerial.h **** #include <inttypes.h>
  28:/home/arhat109/.arduino15/packages/MegaCore/hardware/avr/1.0.6/cores/MegaCore/HardwareSerial.h **** 
  29:/home/arhat109/.arduino15/packages/MegaCore/hardware/avr/1.0.6/cores/MegaCore/HardwareSerial.h **** #include "Stream.h"
  30:/home/arhat109/.arduino15/packages/MegaCore/hardware/avr/1.0.6/cores/MegaCore/HardwareSerial.h **** 
  31:/home/arhat109/.arduino15/packages/MegaCore/hardware/avr/1.0.6/cores/MegaCore/HardwareSerial.h **** // Define constants and variables for buffering incoming serial data.  We're
  32:/home/arhat109/.arduino15/packages/MegaCore/hardware/avr/1.0.6/cores/MegaCore/HardwareSerial.h **** // using a ring buffer (I think), in which head is the index of the location
  33:/home/arhat109/.arduino15/packages/MegaCore/hardware/avr/1.0.6/cores/MegaCore/HardwareSerial.h **** // to which to write the next incoming character and tail is the index of the
  34:/home/arhat109/.arduino15/packages/MegaCore/hardware/avr/1.0.6/cores/MegaCore/HardwareSerial.h **** // location from which to read.
  35:/home/arhat109/.arduino15/packages/MegaCore/hardware/avr/1.0.6/cores/MegaCore/HardwareSerial.h **** // NOTE: a "power of 2" buffer size is reccomended to dramatically
  36:/home/arhat109/.arduino15/packages/MegaCore/hardware/avr/1.0.6/cores/MegaCore/HardwareSerial.h **** //       optimize all the modulo operations for ring buffers.
  37:/home/arhat109/.arduino15/packages/MegaCore/hardware/avr/1.0.6/cores/MegaCore/HardwareSerial.h **** // WARNING: When buffer sizes are increased to > 256, the buffer index
  38:/home/arhat109/.arduino15/packages/MegaCore/hardware/avr/1.0.6/cores/MegaCore/HardwareSerial.h **** // variables are automatically increased in size, but the extra
  39:/home/arhat109/.arduino15/packages/MegaCore/hardware/avr/1.0.6/cores/MegaCore/HardwareSerial.h **** // atomicity guards needed for that are not implemented. This will
  40:/home/arhat109/.arduino15/packages/MegaCore/hardware/avr/1.0.6/cores/MegaCore/HardwareSerial.h **** // often work, but occasionally a race condition can occur that makes
  41:/home/arhat109/.arduino15/packages/MegaCore/hardware/avr/1.0.6/cores/MegaCore/HardwareSerial.h **** // Serial behave erratically. See https://github.com/arduino/Arduino/issues/2405
  42:/home/arhat109/.arduino15/packages/MegaCore/hardware/avr/1.0.6/cores/MegaCore/HardwareSerial.h **** #if !defined(SERIAL_TX_BUFFER_SIZE)
  43:/home/arhat109/.arduino15/packages/MegaCore/hardware/avr/1.0.6/cores/MegaCore/HardwareSerial.h **** #if ((RAMEND - RAMSTART) < 1023)
  44:/home/arhat109/.arduino15/packages/MegaCore/hardware/avr/1.0.6/cores/MegaCore/HardwareSerial.h **** #define SERIAL_TX_BUFFER_SIZE 16
  45:/home/arhat109/.arduino15/packages/MegaCore/hardware/avr/1.0.6/cores/MegaCore/HardwareSerial.h **** #else
  46:/home/arhat109/.arduino15/packages/MegaCore/hardware/avr/1.0.6/cores/MegaCore/HardwareSerial.h **** #define SERIAL_TX_BUFFER_SIZE 64
  47:/home/arhat109/.arduino15/packages/MegaCore/hardware/avr/1.0.6/cores/MegaCore/HardwareSerial.h **** #endif
  48:/home/arhat109/.arduino15/packages/MegaCore/hardware/avr/1.0.6/cores/MegaCore/HardwareSerial.h **** #endif
GAS LISTING /tmp/ccPLkBqf.s 			page 7


  49:/home/arhat109/.arduino15/packages/MegaCore/hardware/avr/1.0.6/cores/MegaCore/HardwareSerial.h **** #if !defined(SERIAL_RX_BUFFER_SIZE)
  50:/home/arhat109/.arduino15/packages/MegaCore/hardware/avr/1.0.6/cores/MegaCore/HardwareSerial.h **** #if ((RAMEND - RAMSTART) < 1023)
  51:/home/arhat109/.arduino15/packages/MegaCore/hardware/avr/1.0.6/cores/MegaCore/HardwareSerial.h **** #define SERIAL_RX_BUFFER_SIZE 16
  52:/home/arhat109/.arduino15/packages/MegaCore/hardware/avr/1.0.6/cores/MegaCore/HardwareSerial.h **** #else
  53:/home/arhat109/.arduino15/packages/MegaCore/hardware/avr/1.0.6/cores/MegaCore/HardwareSerial.h **** #define SERIAL_RX_BUFFER_SIZE 64
  54:/home/arhat109/.arduino15/packages/MegaCore/hardware/avr/1.0.6/cores/MegaCore/HardwareSerial.h **** #endif
  55:/home/arhat109/.arduino15/packages/MegaCore/hardware/avr/1.0.6/cores/MegaCore/HardwareSerial.h **** #endif
  56:/home/arhat109/.arduino15/packages/MegaCore/hardware/avr/1.0.6/cores/MegaCore/HardwareSerial.h **** #if (SERIAL_TX_BUFFER_SIZE>256)
  57:/home/arhat109/.arduino15/packages/MegaCore/hardware/avr/1.0.6/cores/MegaCore/HardwareSerial.h **** typedef uint16_t tx_buffer_index_t;
  58:/home/arhat109/.arduino15/packages/MegaCore/hardware/avr/1.0.6/cores/MegaCore/HardwareSerial.h **** #else
  59:/home/arhat109/.arduino15/packages/MegaCore/hardware/avr/1.0.6/cores/MegaCore/HardwareSerial.h **** typedef uint8_t tx_buffer_index_t;
  60:/home/arhat109/.arduino15/packages/MegaCore/hardware/avr/1.0.6/cores/MegaCore/HardwareSerial.h **** #endif
  61:/home/arhat109/.arduino15/packages/MegaCore/hardware/avr/1.0.6/cores/MegaCore/HardwareSerial.h **** #if  (SERIAL_RX_BUFFER_SIZE>256)
  62:/home/arhat109/.arduino15/packages/MegaCore/hardware/avr/1.0.6/cores/MegaCore/HardwareSerial.h **** typedef uint16_t rx_buffer_index_t;
  63:/home/arhat109/.arduino15/packages/MegaCore/hardware/avr/1.0.6/cores/MegaCore/HardwareSerial.h **** #else
  64:/home/arhat109/.arduino15/packages/MegaCore/hardware/avr/1.0.6/cores/MegaCore/HardwareSerial.h **** typedef uint8_t rx_buffer_index_t;
  65:/home/arhat109/.arduino15/packages/MegaCore/hardware/avr/1.0.6/cores/MegaCore/HardwareSerial.h **** #endif
  66:/home/arhat109/.arduino15/packages/MegaCore/hardware/avr/1.0.6/cores/MegaCore/HardwareSerial.h **** 
  67:/home/arhat109/.arduino15/packages/MegaCore/hardware/avr/1.0.6/cores/MegaCore/HardwareSerial.h **** // Define config for Serial.begin(baud, config);
  68:/home/arhat109/.arduino15/packages/MegaCore/hardware/avr/1.0.6/cores/MegaCore/HardwareSerial.h **** #define SERIAL_5N1 0x00
  69:/home/arhat109/.arduino15/packages/MegaCore/hardware/avr/1.0.6/cores/MegaCore/HardwareSerial.h **** #define SERIAL_6N1 0x02
  70:/home/arhat109/.arduino15/packages/MegaCore/hardware/avr/1.0.6/cores/MegaCore/HardwareSerial.h **** #define SERIAL_7N1 0x04
  71:/home/arhat109/.arduino15/packages/MegaCore/hardware/avr/1.0.6/cores/MegaCore/HardwareSerial.h **** #define SERIAL_8N1 0x06
  72:/home/arhat109/.arduino15/packages/MegaCore/hardware/avr/1.0.6/cores/MegaCore/HardwareSerial.h **** #define SERIAL_5N2 0x08
  73:/home/arhat109/.arduino15/packages/MegaCore/hardware/avr/1.0.6/cores/MegaCore/HardwareSerial.h **** #define SERIAL_6N2 0x0A
  74:/home/arhat109/.arduino15/packages/MegaCore/hardware/avr/1.0.6/cores/MegaCore/HardwareSerial.h **** #define SERIAL_7N2 0x0C
  75:/home/arhat109/.arduino15/packages/MegaCore/hardware/avr/1.0.6/cores/MegaCore/HardwareSerial.h **** #define SERIAL_8N2 0x0E
  76:/home/arhat109/.arduino15/packages/MegaCore/hardware/avr/1.0.6/cores/MegaCore/HardwareSerial.h **** #define SERIAL_5E1 0x20
  77:/home/arhat109/.arduino15/packages/MegaCore/hardware/avr/1.0.6/cores/MegaCore/HardwareSerial.h **** #define SERIAL_6E1 0x22
  78:/home/arhat109/.arduino15/packages/MegaCore/hardware/avr/1.0.6/cores/MegaCore/HardwareSerial.h **** #define SERIAL_7E1 0x24
  79:/home/arhat109/.arduino15/packages/MegaCore/hardware/avr/1.0.6/cores/MegaCore/HardwareSerial.h **** #define SERIAL_8E1 0x26
  80:/home/arhat109/.arduino15/packages/MegaCore/hardware/avr/1.0.6/cores/MegaCore/HardwareSerial.h **** #define SERIAL_5E2 0x28
  81:/home/arhat109/.arduino15/packages/MegaCore/hardware/avr/1.0.6/cores/MegaCore/HardwareSerial.h **** #define SERIAL_6E2 0x2A
  82:/home/arhat109/.arduino15/packages/MegaCore/hardware/avr/1.0.6/cores/MegaCore/HardwareSerial.h **** #define SERIAL_7E2 0x2C
  83:/home/arhat109/.arduino15/packages/MegaCore/hardware/avr/1.0.6/cores/MegaCore/HardwareSerial.h **** #define SERIAL_8E2 0x2E
  84:/home/arhat109/.arduino15/packages/MegaCore/hardware/avr/1.0.6/cores/MegaCore/HardwareSerial.h **** #define SERIAL_5O1 0x30
  85:/home/arhat109/.arduino15/packages/MegaCore/hardware/avr/1.0.6/cores/MegaCore/HardwareSerial.h **** #define SERIAL_6O1 0x32
  86:/home/arhat109/.arduino15/packages/MegaCore/hardware/avr/1.0.6/cores/MegaCore/HardwareSerial.h **** #define SERIAL_7O1 0x34
  87:/home/arhat109/.arduino15/packages/MegaCore/hardware/avr/1.0.6/cores/MegaCore/HardwareSerial.h **** #define SERIAL_8O1 0x36
  88:/home/arhat109/.arduino15/packages/MegaCore/hardware/avr/1.0.6/cores/MegaCore/HardwareSerial.h **** #define SERIAL_5O2 0x38
  89:/home/arhat109/.arduino15/packages/MegaCore/hardware/avr/1.0.6/cores/MegaCore/HardwareSerial.h **** #define SERIAL_6O2 0x3A
  90:/home/arhat109/.arduino15/packages/MegaCore/hardware/avr/1.0.6/cores/MegaCore/HardwareSerial.h **** #define SERIAL_7O2 0x3C
  91:/home/arhat109/.arduino15/packages/MegaCore/hardware/avr/1.0.6/cores/MegaCore/HardwareSerial.h **** #define SERIAL_8O2 0x3E
  92:/home/arhat109/.arduino15/packages/MegaCore/hardware/avr/1.0.6/cores/MegaCore/HardwareSerial.h **** 
  93:/home/arhat109/.arduino15/packages/MegaCore/hardware/avr/1.0.6/cores/MegaCore/HardwareSerial.h **** class HardwareSerial : public Stream
  94:/home/arhat109/.arduino15/packages/MegaCore/hardware/avr/1.0.6/cores/MegaCore/HardwareSerial.h **** {
  95:/home/arhat109/.arduino15/packages/MegaCore/hardware/avr/1.0.6/cores/MegaCore/HardwareSerial.h ****   protected:
  96:/home/arhat109/.arduino15/packages/MegaCore/hardware/avr/1.0.6/cores/MegaCore/HardwareSerial.h ****     volatile uint8_t * const _ubrrh;
  97:/home/arhat109/.arduino15/packages/MegaCore/hardware/avr/1.0.6/cores/MegaCore/HardwareSerial.h ****     volatile uint8_t * const _ubrrl;
  98:/home/arhat109/.arduino15/packages/MegaCore/hardware/avr/1.0.6/cores/MegaCore/HardwareSerial.h ****     volatile uint8_t * const _ucsra;
  99:/home/arhat109/.arduino15/packages/MegaCore/hardware/avr/1.0.6/cores/MegaCore/HardwareSerial.h ****     volatile uint8_t * const _ucsrb;
 100:/home/arhat109/.arduino15/packages/MegaCore/hardware/avr/1.0.6/cores/MegaCore/HardwareSerial.h ****     volatile uint8_t * const _ucsrc;
 101:/home/arhat109/.arduino15/packages/MegaCore/hardware/avr/1.0.6/cores/MegaCore/HardwareSerial.h ****     volatile uint8_t * const _udr;
 102:/home/arhat109/.arduino15/packages/MegaCore/hardware/avr/1.0.6/cores/MegaCore/HardwareSerial.h ****     // Has any byte been written to the UART since begin()
 103:/home/arhat109/.arduino15/packages/MegaCore/hardware/avr/1.0.6/cores/MegaCore/HardwareSerial.h ****     bool _written;
 104:/home/arhat109/.arduino15/packages/MegaCore/hardware/avr/1.0.6/cores/MegaCore/HardwareSerial.h **** 
 105:/home/arhat109/.arduino15/packages/MegaCore/hardware/avr/1.0.6/cores/MegaCore/HardwareSerial.h ****     volatile rx_buffer_index_t _rx_buffer_head;
GAS LISTING /tmp/ccPLkBqf.s 			page 8


 106:/home/arhat109/.arduino15/packages/MegaCore/hardware/avr/1.0.6/cores/MegaCore/HardwareSerial.h ****     volatile rx_buffer_index_t _rx_buffer_tail;
 107:/home/arhat109/.arduino15/packages/MegaCore/hardware/avr/1.0.6/cores/MegaCore/HardwareSerial.h ****     volatile tx_buffer_index_t _tx_buffer_head;
 108:/home/arhat109/.arduino15/packages/MegaCore/hardware/avr/1.0.6/cores/MegaCore/HardwareSerial.h ****     volatile tx_buffer_index_t _tx_buffer_tail;
 109:/home/arhat109/.arduino15/packages/MegaCore/hardware/avr/1.0.6/cores/MegaCore/HardwareSerial.h **** 
 110:/home/arhat109/.arduino15/packages/MegaCore/hardware/avr/1.0.6/cores/MegaCore/HardwareSerial.h ****     // Don't put any members after these buffers, since only the first
 111:/home/arhat109/.arduino15/packages/MegaCore/hardware/avr/1.0.6/cores/MegaCore/HardwareSerial.h ****     // 32 bytes of this struct can be accessed quickly using the ldd
 112:/home/arhat109/.arduino15/packages/MegaCore/hardware/avr/1.0.6/cores/MegaCore/HardwareSerial.h ****     // instruction.
 113:/home/arhat109/.arduino15/packages/MegaCore/hardware/avr/1.0.6/cores/MegaCore/HardwareSerial.h ****     unsigned char _rx_buffer[SERIAL_RX_BUFFER_SIZE];
 114:/home/arhat109/.arduino15/packages/MegaCore/hardware/avr/1.0.6/cores/MegaCore/HardwareSerial.h ****     unsigned char _tx_buffer[SERIAL_TX_BUFFER_SIZE];
 115:/home/arhat109/.arduino15/packages/MegaCore/hardware/avr/1.0.6/cores/MegaCore/HardwareSerial.h **** 
 116:/home/arhat109/.arduino15/packages/MegaCore/hardware/avr/1.0.6/cores/MegaCore/HardwareSerial.h ****   public:
 117:/home/arhat109/.arduino15/packages/MegaCore/hardware/avr/1.0.6/cores/MegaCore/HardwareSerial.h ****     inline HardwareSerial(
 118:/home/arhat109/.arduino15/packages/MegaCore/hardware/avr/1.0.6/cores/MegaCore/HardwareSerial.h ****       volatile uint8_t *ubrrh, volatile uint8_t *ubrrl,
 119:/home/arhat109/.arduino15/packages/MegaCore/hardware/avr/1.0.6/cores/MegaCore/HardwareSerial.h ****       volatile uint8_t *ucsra, volatile uint8_t *ucsrb,
 120:/home/arhat109/.arduino15/packages/MegaCore/hardware/avr/1.0.6/cores/MegaCore/HardwareSerial.h ****       volatile uint8_t *ucsrc, volatile uint8_t *udr);
 121:/home/arhat109/.arduino15/packages/MegaCore/hardware/avr/1.0.6/cores/MegaCore/HardwareSerial.h ****     void begin(unsigned long baud) { begin(baud, SERIAL_8N1); }
 214               		.loc 2 121 0
 215 0000 26E0      		ldi r18,lo8(6)
 216 0002 40E0      		ldi r20,0
 217 0004 52EC      		ldi r21,lo8(-62)
 218 0006 61E0      		ldi r22,lo8(1)
 219 0008 70E0      		ldi r23,0
 220 000a 80E0      		ldi r24,lo8(Serial)
 221 000c 90E0      		ldi r25,hi8(Serial)
 222 000e 0E94 0000 		call _ZN14HardwareSerial5beginEmh
 223               	.LVL13:
 224               	.LBE7:
 225               	.LBE6:
  82:/home/arhat109/Arduino/tests/adcTest.ino/adcTest.ino.ino ****   Serial.begin(115200);
  83:/home/arhat109/Arduino/tests/adcTest.ino/adcTest.ino.ino ****   TCCR3A = 128+32+8+1; // A,B,C normal + 01 - WGM1,WGM0
 226               		.loc 1 83 0
 227 0012 89EA      		ldi r24,lo8(-87)
 228 0014 8093 8B00 		sts 139,r24
  84:/home/arhat109/Arduino/tests/adcTest.ino/adcTest.ino.ino ****   TCCR3B = 0+2;        // WGM3,WGM2=01 - "5mode:FastPWM255", Prescaler:1=16Mhz, 2=2Mhz 
 229               		.loc 1 84 0
 230 0018 82E0      		ldi r24,lo8(2)
 231 001a 8093 8A00 		sts 138,r24
  85:/home/arhat109/Arduino/tests/adcTest.ino/adcTest.ino.ino ****   OCR3A = 192;
 232               		.loc 1 85 0
 233 001e 80EC      		ldi r24,lo8(-64)
 234 0020 90E0      		ldi r25,0
 235 0022 9093 8700 		sts 134+1,r25
 236 0026 8093 8600 		sts 134,r24
  86:/home/arhat109/Arduino/tests/adcTest.ino/adcTest.ino.ino ****   OCR3B = 128;
 237               		.loc 1 86 0
 238 002a 80E8      		ldi r24,lo8(-128)
 239 002c 90E0      		ldi r25,0
 240 002e 9093 8500 		sts 132+1,r25
 241 0032 8093 8400 		sts 132,r24
  87:/home/arhat109/Arduino/tests/adcTest.ino/adcTest.ino.ino ****   OCR3C = 64;
 242               		.loc 1 87 0
 243 0036 80E4      		ldi r24,lo8(64)
 244 0038 90E0      		ldi r25,0
 245 003a 9093 8300 		sts 130+1,r25
 246 003e 8093 8200 		sts 130,r24
  88:/home/arhat109/Arduino/tests/adcTest.ino/adcTest.ino.ino ****   DDRE = _BV(3)|_BV(4)|_BV(5); // T3 A,B,C to uptput!
 247               		.loc 1 88 0
GAS LISTING /tmp/ccPLkBqf.s 			page 9


 248 0042 88E3      		ldi r24,lo8(56)
 249 0044 82B9      		out 0x2,r24
  89:/home/arhat109/Arduino/tests/adcTest.ino/adcTest.ino.ino **** 
  90:/home/arhat109/Arduino/tests/adcTest.ino/adcTest.ino.ino ****   ADMUX = 64|32;
 250               		.loc 1 90 0
 251 0046 80E6      		ldi r24,lo8(96)
 252 0048 87B9      		out 0x7,r24
  91:/home/arhat109/Arduino/tests/adcTest.ino/adcTest.ino.ino **** //  DIDR0 = 1;
  92:/home/arhat109/Arduino/tests/adcTest.ino/adcTest.ino.ino **** //  ADCSRB = 0;
  93:/home/arhat109/Arduino/tests/adcTest.ino/adcTest.ino.ino **** /*
  94:/home/arhat109/Arduino/tests/adcTest.ino/adcTest.ino.ino ****   ADCSRA = _BV(ADEN) | 2; // 1:2 = 8Mhz
  95:/home/arhat109/Arduino/tests/adcTest.ino/adcTest.ino.ino ****   delayMicroseconds(10);
  96:/home/arhat109/Arduino/tests/adcTest.ino/adcTest.ino.ino ****   test(0, MAX_BUF/2);
  97:/home/arhat109/Arduino/tests/adcTest.ino/adcTest.ino.ino **** 
  98:/home/arhat109/Arduino/tests/adcTest.ino/adcTest.ino.ino ****   ADCSRA = _BV(ADEN) | 4; // 1:4 = 4Mhz
  99:/home/arhat109/Arduino/tests/adcTest.ino/adcTest.ino.ino ****   delayMicroseconds(10);
 100:/home/arhat109/Arduino/tests/adcTest.ino/adcTest.ino.ino ****   test(MAX_BUF/2+1, MAX_BUF);
 101:/home/arhat109/Arduino/tests/adcTest.ino/adcTest.ino.ino **** 
 102:/home/arhat109/Arduino/tests/adcTest.ino/adcTest.ino.ino ****   for(int i=0; i<MAX_BUF; i++){
 103:/home/arhat109/Arduino/tests/adcTest.ino/adcTest.ino.ino ****     Serial.println(adcs[i], DEC);
 104:/home/arhat109/Arduino/tests/adcTest.ino/adcTest.ino.ino ****   }
 105:/home/arhat109/Arduino/tests/adcTest.ino/adcTest.ino.ino **** */
 106:/home/arhat109/Arduino/tests/adcTest.ino/adcTest.ino.ino ****   ADCSRA = _BV(ADEN);
 253               		.loc 1 106 0
 254 004a 80E8      		ldi r24,lo8(-128)
 255 004c 86B9      		out 0x6,r24
 107:/home/arhat109/Arduino/tests/adcTest.ino/adcTest.ino.ino ****   delayMicroseconds(10);
 256               		.loc 1 107 0
 257 004e 8AE0      		ldi r24,lo8(10)
 258 0050 90E0      		ldi r25,0
 259 0052 0E94 0000 		call delayMicroseconds
 260               	.LVL14:
 108:/home/arhat109/Arduino/tests/adcTest.ino/adcTest.ino.ino ****   adcState = 0;
 261               		.loc 1 108 0
 262 0056 1092 0000 		sts adcState,__zero_reg__
 263 005a 0895      		ret
 264               		.cfi_endproc
 265               	.LFE124:
 266               		.size	setup, .-setup
 267               		.section	.text.loop,"ax",@progbits
 268               	.global	loop
 269               		.type	loop, @function
 270               	loop:
 271               	.LFB125:
 109:/home/arhat109/Arduino/tests/adcTest.ino/adcTest.ino.ino **** }
 110:/home/arhat109/Arduino/tests/adcTest.ino/adcTest.ino.ino **** 
 111:/home/arhat109/Arduino/tests/adcTest.ino/adcTest.ino.ino **** void loop()
 112:/home/arhat109/Arduino/tests/adcTest.ino/adcTest.ino.ino **** {
 272               		.loc 1 112 0
 273               		.cfi_startproc
 274 0000 CF93      		push r28
 275               	.LCFI6:
 276               		.cfi_def_cfa_offset 3
 277               		.cfi_offset 28, -2
 278 0002 DF93      		push r29
 279               	.LCFI7:
 280               		.cfi_def_cfa_offset 4
GAS LISTING /tmp/ccPLkBqf.s 			page 10


 281               		.cfi_offset 29, -3
 282               	/* prologue: function */
 283               	/* frame size = 0 */
 284               	/* stack size = 2 */
 285               	.L__stack_usage = 2
 286               	.LBB8:
 113:/home/arhat109/Arduino/tests/adcTest.ino/adcTest.ino.ino ****   switch(adcState){
 287               		.loc 1 113 0
 288 0004 8091 0000 		lds r24,adcState
 289 0008 8130      		cpi r24,lo8(1)
 290 000a 01F0      		breq .L14
 291 000c 8230      		cpi r24,lo8(2)
 292 000e 01F4      		brne .L15
 293 0010 C0E0      		ldi r28,lo8(adcs)
 294 0012 D0E0      		ldi r29,hi8(adcs)
 295               	.L18:
 296               	.LVL15:
 297               	.LBB9:
 298               	.LBB10:
 114:/home/arhat109/Arduino/tests/adcTest.ino/adcTest.ino.ino ****     case ADC_START:
 115:/home/arhat109/Arduino/tests/adcTest.ino/adcTest.ino.ino ****       break;
 116:/home/arhat109/Arduino/tests/adcTest.ino/adcTest.ino.ino ****     case ADC_DONE:
 117:/home/arhat109/Arduino/tests/adcTest.ino/adcTest.ino.ino ****       for(int i=0; i<MAX_BUF; i++){
 118:/home/arhat109/Arduino/tests/adcTest.ino/adcTest.ino.ino ****         Serial.println(adcs[i], DEC);
 299               		.loc 1 118 0 discriminator 3
 300 0014 6991      		ld r22,Y+
 301               	.LVL16:
 302 0016 4AE0      		ldi r20,lo8(10)
 303 0018 50E0      		ldi r21,0
 304 001a 80E0      		ldi r24,lo8(Serial)
 305 001c 90E0      		ldi r25,hi8(Serial)
 306 001e 0E94 0000 		call _ZN5Print7printlnEhi
 307               	.LVL17:
 117:/home/arhat109/Arduino/tests/adcTest.ino/adcTest.ino.ino ****         Serial.println(adcs[i], DEC);
 308               		.loc 1 117 0 discriminator 3
 309 0022 80E0      		ldi r24,hi8(adcs+400)
 310 0024 C030      		cpi r28,lo8(adcs+400)
 311 0026 D807      		cpc r29,r24
 312 0028 01F4      		brne .L18
 313               	.LBE10:
 119:/home/arhat109/Arduino/tests/adcTest.ino/adcTest.ino.ino ****       }
 120:/home/arhat109/Arduino/tests/adcTest.ino/adcTest.ino.ino ****       adcState=0;
 314               		.loc 1 120 0
 315 002a 1092 0000 		sts adcState,__zero_reg__
 121:/home/arhat109/Arduino/tests/adcTest.ino/adcTest.ino.ino ****       delay(10000);
 316               		.loc 1 121 0
 317 002e 60E1      		ldi r22,lo8(16)
 318 0030 77E2      		ldi r23,lo8(39)
 319 0032 80E0      		ldi r24,0
 320 0034 90E0      		ldi r25,0
 321 0036 0E94 0000 		call delay
 322               	.LVL18:
 323               	.L15:
 122:/home/arhat109/Arduino/tests/adcTest.ino/adcTest.ino.ino ****     default:
 123:/home/arhat109/Arduino/tests/adcTest.ino/adcTest.ino.ino ****       adcStart(&adcs[0], MAX_BUF, 3);
 324               		.loc 1 123 0
 325 003a 43E0      		ldi r20,lo8(3)
GAS LISTING /tmp/ccPLkBqf.s 			page 11


 326 003c 60E9      		ldi r22,lo8(-112)
 327 003e 71E0      		ldi r23,lo8(1)
 328 0040 80E0      		ldi r24,lo8(adcs)
 329 0042 90E0      		ldi r25,hi8(adcs)
 330               	/* epilogue start */
 331               	.LBE9:
 332               	.LBE8:
 124:/home/arhat109/Arduino/tests/adcTest.ino/adcTest.ino.ino ****   }
 125:/home/arhat109/Arduino/tests/adcTest.ino/adcTest.ino.ino **** }
 333               		.loc 1 125 0
 334 0044 DF91      		pop r29
 335 0046 CF91      		pop r28
 336               	.LBB12:
 337               	.LBB11:
 123:/home/arhat109/Arduino/tests/adcTest.ino/adcTest.ino.ino ****   }
 338               		.loc 1 123 0
 339 0048 0C94 0000 		jmp adcStart
 340               	.LVL19:
 341               	.L14:
 342               	/* epilogue start */
 343               	.LBE11:
 344               	.LBE12:
 345               		.loc 1 125 0
 346 004c DF91      		pop r29
 347 004e CF91      		pop r28
 348 0050 0895      		ret
 349               		.cfi_endproc
 350               	.LFE125:
 351               		.size	loop, .-loop
 352               	.global	adcs
 353               		.section	.bss.adcs,"aw",@nobits
 354               		.type	adcs, @object
 355               		.size	adcs, 400
 356               	adcs:
 357 0000 0000 0000 		.zero	400
 357      0000 0000 
 357      0000 0000 
 357      0000 0000 
 357      0000 0000 
 358               	.global	adcState
 359               		.section	.data.adcState,"aw",@progbits
 360               		.type	adcState, @object
 361               		.size	adcState, 1
 362               	adcState:
 363 0000 01        		.byte	1
 364               	.global	adcBuffer
 365               		.section	.bss.adcBuffer,"aw",@nobits
 366               		.type	adcBuffer, @object
 367               		.size	adcBuffer, 2
 368               	adcBuffer:
 369 0000 0000      		.zero	2
 370               	.global	adcCount
 371               		.section	.bss.adcCount,"aw",@nobits
 372               		.type	adcCount, @object
 373               		.size	adcCount, 2
 374               	adcCount:
 375 0000 0000      		.zero	2
GAS LISTING /tmp/ccPLkBqf.s 			page 12


 376               		.text
 377               	.Letext0:
 378               		.file 3 "/home/arhat109/progs/arduino-1.8.2/hardware/tools/avr/lib/gcc/avr/4.9.2/include/stddef.h"
 379               		.file 4 "/home/arhat109/progs/arduino-1.8.2/hardware/tools/avr/avr/include/stdint.h"
 380               		.file 5 "/home/arhat109/.arduino15/packages/MegaCore/hardware/avr/1.0.6/cores/MegaCore/Print.h"
 381               		.file 6 "/home/arhat109/.arduino15/packages/MegaCore/hardware/avr/1.0.6/cores/MegaCore/Arduino.h"
 382               		.file 7 "/home/arhat109/.arduino15/packages/MegaCore/hardware/avr/1.0.6/variants/standard/pins_ard
 383               		.file 8 "/home/arhat109/.arduino15/packages/MegaCore/hardware/avr/1.0.6/cores/MegaCore/Stream.h"