GAS LISTING /tmp/ccfXOBLh.s 			page 1


   1               		.file	"LCD1602ex.cpp"
   2               	__SP_H__ = 0x3e
   3               	__SP_L__ = 0x3d
   4               	__SREG__ = 0x3f
   5               	__RAMPZ__ = 0x3b
   6               	__tmp_reg__ = 0
   7               	__zero_reg__ = 1
   8               		.text
   9               	.Ltext0:
  10               		.cfi_sections	.debug_frame
  11               		.section	.text.twiSpeed,"ax",@progbits
  12               	.global	twiSpeed
  13               		.type	twiSpeed, @function
  14               	twiSpeed:
  15               	.LFB102:
  16               		.file 1 "/home/arhat109/Arduino/libraries/Arhat/arhat_twi2.h"
   1:/home/arhat109/Arduino/libraries/Arhat/arhat_twi2.h **** /**
   2:/home/arhat109/Arduino/libraries/Arhat/arhat_twi2.h ****  * –†–∞–±–æ—Ç–∞ —Å TWI (I2C, 2-Wire) –∏–Ω—Ç–µ—Ä—Ñ–µ–π—Å–æ–º —á–µ—Ä–µ–∑ –∞–ø–ø–∞—Ä–∞—Ç–Ω—ã–µ –ø—Ä–µ—
   3:/home/arhat109/Arduino/libraries/Arhat/arhat_twi2.h ****  *
   4:/home/arhat109/Arduino/libraries/Arhat/arhat_twi2.h ****  * ! –ê–ø–ø–∞—Ä–∞—Ç–Ω–æ –Ω–µ –±—ã–≤–∞–µ—Ç –æ–¥–Ω–æ–≤—Ä–µ–º–µ–Ω–Ω–æ —Ä–µ–∂–∏–º–∞ Master-RX –∏ Slave-
   5:/home/arhat109/Arduino/libraries/Arhat/arhat_twi2.h ****  * ! –ù–µ—Ç –Ω–∏–∫–∞–∫–∏—Ö "–ø—Ä–æ–≤–µ—Ä–æ–∫", –Ω–∞—Å—Ç—Ä–æ–π–∫–∞ –≥–ª–æ–±–∞–ª–æ–≤ - –æ–±—è–∑–∞—Ç–µ
   6:/home/arhat109/Arduino/libraries/Arhat/arhat_twi2.h ****  * Master-Transmitter: twiMT_Ptr, twiMT_Count                  -- –æ—Ç–∫—É–¥–∞ –∏ —Å–∫–æ–ª—å–∫–æ –±
   7:/home/arhat109/Arduino/libraries/Arhat/arhat_twi2.h ****  * Master-Receiver:    twiRX_Ptr, twiRX_Count, twiMasterReader -- –∫—É–¥–∞ –∏ —Å–∫–æ–ª—å–∫–æ –ø—Ä–∏
   8:/home/arhat109/Arduino/libraries/Arhat/arhat_twi2.h ****  * Slave-Receiver:     twiRX_Ptr, twiRX_Count, twiSlaveReader  -- –∫—É–¥–∞ –∏ —Å–∫–æ–ª—å–∫–æ –ø—Ä–∏
   9:/home/arhat109/Arduino/libraries/Arhat/arhat_twi2.h ****  * Slave-Transmitter:  twiST_Ptr, twiST_Count, twiSlaveWriter  -- –æ—Ç–∫—É–¥–∞ –∏ —Å–∫–æ–ª—å–∫–æ –æ
  10:/home/arhat109/Arduino/libraries/Arhat/arhat_twi2.h ****  *
  11:/home/arhat109/Arduino/libraries/Arhat/arhat_twi2.h ****  * –û—Å–æ–±–µ–Ω–Ω–æ—Å—Ç–∏ –∏ –æ—Ç–ª–∏—á–∏—è –æ—Ç —Ç–∏–ø–æ–≤—ã—Ö —Ä–∞–∑—Ä–∞–±–æ—Ç–æ–∫ (—Å–æ–±—Ä–∞–Ω–
  12:/home/arhat109/Arduino/libraries/Arhat/arhat_twi2.h ****  * 1. –í–æ–∑–º–æ–∂–Ω–æ—Å—Ç—å –æ–¥–Ω–æ–≤—Ä–µ–º–µ–Ω–Ω–æ–π —Ä–∞–±–æ—Ç—ã –∫–∞–∫ –≤ —Ä–µ–∂–∏–º–µ Master 
  13:/home/arhat109/Arduino/libraries/Arhat/arhat_twi2.h ****  * 2. –í–Ω–µ—à–Ω—è—è –±—É—Ñ–µ—Ä–∏–∑–∞—Ü–∏—è –¥–∞–Ω–Ω—ã—Ö –ø—Ä–∏ –Ω–µ–æ–±—Ö–æ–¥–∏–º–æ—Å—Ç–∏. –†–∞–∑–
  14:/home/arhat109/Arduino/libraries/Arhat/arhat_twi2.h ****  * 3. –í–æ–∑–º–æ–∂–Ω–æ—Å—Ç—å –≤–µ–¥–µ–Ω–∏—è —Å—Ç–∞—Ç–∏—Å—Ç–∏–∫–∏ - —É–ø—Ä–∞–≤–ª—è–µ—Ç—Å—è –∫–æ–Ω—Å—
  15:/home/arhat109/Arduino/libraries/Arhat/arhat_twi2.h ****  * 4. –ü—Ä–æ–∏–∑–≤–æ–ª—å–Ω–∞—è –Ω–∞—Å—Ç—Ä–æ–π–∫–∞ —Å–∫–æ—Ä–æ—Å—Ç–∏ —Ä–∞–±–æ—Ç—ã –∏–Ω—Ç–µ—Ä—Ñ–µ–π—Å–
  16:/home/arhat109/Arduino/libraries/Arhat/arhat_twi2.h ****  * 5. –í–æ–∑–º–æ–∂–Ω–æ—Å—Ç—å —É–º–µ–Ω—å—à–µ–Ω–Ω–æ–π –∫–æ–º–ø–ª–∏—Ü–∏–∏ —Ç–æ–ª—å–∫–æ —Ä–µ–∂–∏–º–∞ Ma
  17:/home/arhat109/Arduino/libraries/Arhat/arhat_twi2.h ****  *
  18:/home/arhat109/Arduino/libraries/Arhat/arhat_twi2.h ****  * –ö–æ–Ω—Å—Ç–∞–Ω—Ç—ã –∫–æ–º–ø–∏–ª—è—Ü–∏–∏ #define –∏ default_value:
  19:/home/arhat109/Arduino/libraries/Arhat/arhat_twi2.h ****  * #define TWI_LOG_ON   1 // –µ—Å–ª–∏ –Ω–µ –æ–ø—Ä–µ–¥–µ–ª–µ–Ω–æ, —Ç–æ –Ω–µ –∫–æ–º–ø–∏–ª–∏—Ä–æ–≤–∞—Ç
  20:/home/arhat109/Arduino/libraries/Arhat/arhat_twi2.h ****  * #define TWI_SLAVE_ON 1 // –µ—Å–ª–∏ –Ω–µ –æ–ø—Ä–µ–¥–µ–ª–µ–Ω–æ, —Ç–æ –Ω–µ –∫–æ–º–ø–∏–ª–∏—Ä–æ–≤–∞—Ç
  21:/home/arhat109/Arduino/libraries/Arhat/arhat_twi2.h ****  *
  22:/home/arhat109/Arduino/libraries/Arhat/arhat_twi2.h ****  * @author Arhat109-20160402. arhat109@mail.ru
  23:/home/arhat109/Arduino/libraries/Arhat/arhat_twi2.h ****  * @license:
  24:/home/arhat109/Arduino/libraries/Arhat/arhat_twi2.h ****  *   1. This is a free software for any using and distributing without any warranties.
  25:/home/arhat109/Arduino/libraries/Arhat/arhat_twi2.h ****  *   2. You should keep author tag with any changes. May be with adding.
  26:/home/arhat109/Arduino/libraries/Arhat/arhat_twi2.h ****  *   –≠—Ç–æ —Å–≤–æ–±–æ–¥–Ω–æ–µ –ü–û –¥–ª—è –ª—é–±–æ–≥–æ –∏—Å–ø–æ–ª—å–∑–æ–≤–∞–Ω–∏—è –±–µ–∑ –∫–∞–∫–∏—
  27:/home/arhat109/Arduino/libraries/Arhat/arhat_twi2.h ****  *   –¢—Ä–µ–±—É–µ—Ç—Å—è —Å–æ—Ö—Ä–∞–Ω—è—Ç—å —Ç–µ–≥ @author –ø—Ä–∏ –ª—é–±—ã—Ö –∏–∑–º–µ–Ω–µ–Ω–∏—è—Ö. –
  28:/home/arhat109/Arduino/libraries/Arhat/arhat_twi2.h ****  */
  29:/home/arhat109/Arduino/libraries/Arhat/arhat_twi2.h **** #ifndef ARHAT_TWI_H
  30:/home/arhat109/Arduino/libraries/Arhat/arhat_twi2.h **** #define ARHAT_TWI_H 1
  31:/home/arhat109/Arduino/libraries/Arhat/arhat_twi2.h **** 
  32:/home/arhat109/Arduino/libraries/Arhat/arhat_twi2.h **** //#include "arhat.h"
  33:/home/arhat109/Arduino/libraries/Arhat/arhat_twi2.h **** // Compiler mode ONLY! Use as digits into #define TWI_ON before include this file ONLY!
  34:/home/arhat109/Arduino/libraries/Arhat/arhat_twi2.h **** // @TODO: to move into arhat.h
  35:/home/arhat109/Arduino/libraries/Arhat/arhat_twi2.h **** #define TWI_MASTER_TX    1
  36:/home/arhat109/Arduino/libraries/Arhat/arhat_twi2.h **** #define TWI_MASTER_RX    2
  37:/home/arhat109/Arduino/libraries/Arhat/arhat_twi2.h **** #define TWI_IS_SLAVE_RX  4
  38:/home/arhat109/Arduino/libraries/Arhat/arhat_twi2.h **** #define TWI_IS_SLAVE_TX  8
  39:/home/arhat109/Arduino/libraries/Arhat/arhat_twi2.h **** #define TWI_LOG_ON      16
  40:/home/arhat109/Arduino/libraries/Arhat/arhat_twi2.h **** 
  41:/home/arhat109/Arduino/libraries/Arhat/arhat_twi2.h **** // ------------ All states TWI status register AND twiState: ------------- //
GAS LISTING /tmp/ccfXOBLh.s 			page 2


  42:/home/arhat109/Arduino/libraries/Arhat/arhat_twi2.h **** // Misc
  43:/home/arhat109/Arduino/libraries/Arhat/arhat_twi2.h **** #define TWI_ERROR                  0x00 // Misc: illegal start or stop condition
  44:/home/arhat109/Arduino/libraries/Arhat/arhat_twi2.h **** #define TWI_NO_INFO                0xF8 // Misc: no state information available
  45:/home/arhat109/Arduino/libraries/Arhat/arhat_twi2.h **** 
  46:/home/arhat109/Arduino/libraries/Arhat/arhat_twi2.h **** // I am Master
  47:/home/arhat109/Arduino/libraries/Arhat/arhat_twi2.h **** #define TWI_START                  0x08 // start condition transmitted
  48:/home/arhat109/Arduino/libraries/Arhat/arhat_twi2.h **** #define TWI_REP_START              0x10 // repeated start condition transmitted
  49:/home/arhat109/Arduino/libraries/Arhat/arhat_twi2.h **** #define TWI_MTR_ARB_LOST           0x38 // arbitration lost in SLA+W or data
  50:/home/arhat109/Arduino/libraries/Arhat/arhat_twi2.h **** 
  51:/home/arhat109/Arduino/libraries/Arhat/arhat_twi2.h **** // Master Transmitter
  52:/home/arhat109/Arduino/libraries/Arhat/arhat_twi2.h **** #define TWI_MT_SLA_ACK             0x18 // address: SLA+W transmitted, ACK received
  53:/home/arhat109/Arduino/libraries/Arhat/arhat_twi2.h **** #define TWI_MT_SLA_NACK            0x20 // address: SLA+W transmitted, NACK received
  54:/home/arhat109/Arduino/libraries/Arhat/arhat_twi2.h **** #define TWI_MT_DATA_ACK            0x28 // data: transmitted, ACK received
  55:/home/arhat109/Arduino/libraries/Arhat/arhat_twi2.h **** #define TWI_MT_DATA_NACK           0x30 // data: transmitted, NACK received
  56:/home/arhat109/Arduino/libraries/Arhat/arhat_twi2.h **** 
  57:/home/arhat109/Arduino/libraries/Arhat/arhat_twi2.h **** // Master Receiver
  58:/home/arhat109/Arduino/libraries/Arhat/arhat_twi2.h **** #define TWI_MR_SLA_ACK             0x40 // address: SLA+R transmitted, ACK received
  59:/home/arhat109/Arduino/libraries/Arhat/arhat_twi2.h **** #define TWI_MR_SLA_NACK            0x48 // address: SLA+R transmitted, NACK received
  60:/home/arhat109/Arduino/libraries/Arhat/arhat_twi2.h **** #define TWI_MR_DATA_ACK            0x50 // data: received, ACK returned
  61:/home/arhat109/Arduino/libraries/Arhat/arhat_twi2.h **** #define TWI_MR_DATA_NACK           0x58 // data: received, NACK returned
  62:/home/arhat109/Arduino/libraries/Arhat/arhat_twi2.h **** 
  63:/home/arhat109/Arduino/libraries/Arhat/arhat_twi2.h **** // I am Slave
  64:/home/arhat109/Arduino/libraries/Arhat/arhat_twi2.h **** // Slave Receiver
  65:/home/arhat109/Arduino/libraries/Arhat/arhat_twi2.h **** #define TWI_SR_SLA_ACK             0x60 // address: SLA+W received, ACK returned
  66:/home/arhat109/Arduino/libraries/Arhat/arhat_twi2.h **** #define TWI_SR_ARB_LOST_SLA_ACK    0x68 // arbitration lost in SLA+RW, SLA+W received, ACK returned
  67:/home/arhat109/Arduino/libraries/Arhat/arhat_twi2.h **** #define TWI_SR_GCALL_ACK           0x70 // general call received, ACK returned
  68:/home/arhat109/Arduino/libraries/Arhat/arhat_twi2.h **** #define TWI_SR_ARB_LOST_GCALL_ACK  0x78 // arbitration lost in SLA+RW, general call received, ACK r
  69:/home/arhat109/Arduino/libraries/Arhat/arhat_twi2.h **** #define TWI_SR_DATA_ACK            0x80 // data: received, ACK returned
  70:/home/arhat109/Arduino/libraries/Arhat/arhat_twi2.h **** #define TWI_SR_DATA_NACK           0x88 // data: received, NACK returned
  71:/home/arhat109/Arduino/libraries/Arhat/arhat_twi2.h **** #define TWI_SR_GCALL_DATA_ACK      0x90 // general call data received, ACK returned
  72:/home/arhat109/Arduino/libraries/Arhat/arhat_twi2.h **** #define TWI_SR_GCALL_DATA_NACK     0x98 // general call data received, NACK returned
  73:/home/arhat109/Arduino/libraries/Arhat/arhat_twi2.h **** #define TWI_SR_STOP                0xA0 // stop or repeated start condition received while selected
  74:/home/arhat109/Arduino/libraries/Arhat/arhat_twi2.h **** 
  75:/home/arhat109/Arduino/libraries/Arhat/arhat_twi2.h **** // Slave Transmitter
  76:/home/arhat109/Arduino/libraries/Arhat/arhat_twi2.h **** #define TWI_ST_SLA_ACK             0xA8 // address: SLA+R received, ACK returned
  77:/home/arhat109/Arduino/libraries/Arhat/arhat_twi2.h **** #define TWI_ST_ARB_LOST_SLA_ACK    0xB0 // arbitration lost in SLA+RW, SLA+R received, ACK returned
  78:/home/arhat109/Arduino/libraries/Arhat/arhat_twi2.h **** #define TWI_ST_DATA_ACK            0xB8 // data: transmitted, ACK received
  79:/home/arhat109/Arduino/libraries/Arhat/arhat_twi2.h **** #define TWI_ST_DATA_NACK           0xC0 // data: transmitted, NACK received
  80:/home/arhat109/Arduino/libraries/Arhat/arhat_twi2.h **** #define TWI_ST_LAST_DATA           0xC8 // last data byte transmitted, ACK received
  81:/home/arhat109/Arduino/libraries/Arhat/arhat_twi2.h **** 
  82:/home/arhat109/Arduino/libraries/Arhat/arhat_twi2.h **** // ------------ Macros for TWI ------------- //
  83:/home/arhat109/Arduino/libraries/Arhat/arhat_twi2.h **** 
  84:/home/arhat109/Arduino/libraries/Arhat/arhat_twi2.h **** #define TWI_STATUS_MASK (_BV(TWS7)|_BV(TWS6)|_BV(TWS5)|_BV(TWS4)|_BV(TWS3)) // Two LSB are prescale
  85:/home/arhat109/Arduino/libraries/Arhat/arhat_twi2.h **** #define TWI_STATUS      (TWSR & TWI_STATUS_MASK)                            // Get status from TWSR
  86:/home/arhat109/Arduino/libraries/Arhat/arhat_twi2.h **** 
  87:/home/arhat109/Arduino/libraries/Arhat/arhat_twi2.h **** #define TWI_READ    1                   // for SLA+R address
  88:/home/arhat109/Arduino/libraries/Arhat/arhat_twi2.h **** #define TWI_WRITE   0                   // SLA+W address
  89:/home/arhat109/Arduino/libraries/Arhat/arhat_twi2.h **** #define TWI_ACK     1
  90:/home/arhat109/Arduino/libraries/Arhat/arhat_twi2.h **** #define TWI_NACK    0
  91:/home/arhat109/Arduino/libraries/Arhat/arhat_twi2.h **** 
  92:/home/arhat109/Arduino/libraries/Arhat/arhat_twi2.h **** #define twiOn()       (PRR0 &= ~_BV(7)) // =0: TWI power is On (default on power!)
  93:/home/arhat109/Arduino/libraries/Arhat/arhat_twi2.h **** #define twiOff()      (PRR0 |= _BV(7))  // =1: TWI power is Off
  94:/home/arhat109/Arduino/libraries/Arhat/arhat_twi2.h **** 
  95:/home/arhat109/Arduino/libraries/Arhat/arhat_twi2.h **** /**
  96:/home/arhat109/Arduino/libraries/Arhat/arhat_twi2.h ****  * Set twi bit rate and prescaler: _twbr:[0..255], _twsr:[0..3]
  97:/home/arhat109/Arduino/libraries/Arhat/arhat_twi2.h ****  * ------------------------------------------------------------
  98:/home/arhat109/Arduino/libraries/Arhat/arhat_twi2.h ****  * _twsr = 3: scl freq. = [   490 .. 111_111] hz
GAS LISTING /tmp/ccfXOBLh.s 			page 3


  99:/home/arhat109/Arduino/libraries/Arhat/arhat_twi2.h ****  * _twsr = 2: scl freq. = [ 1_960 .. 333_333] hz
 100:/home/arhat109/Arduino/libraries/Arhat/arhat_twi2.h ****  * _twsr = 1: scl freq. = [ 7_782 .. 666_667] hz
 101:/home/arhat109/Arduino/libraries/Arhat/arhat_twi2.h ****  * _twsr = 0: scl freq. = [30_418 .. 888_889] hz
 102:/home/arhat109/Arduino/libraries/Arhat/arhat_twi2.h ****  * IF _twbr = 0: frequency equal 1 Mhz with any _twsr!
 103:/home/arhat109/Arduino/libraries/Arhat/arhat_twi2.h ****  *
 104:/home/arhat109/Arduino/libraries/Arhat/arhat_twi2.h ****  * @example twiSetRate(72,0) : use 100_000hz standart mode
 105:/home/arhat109/Arduino/libraries/Arhat/arhat_twi2.h ****  * @example twiSetRate(12,0) : use 400_000hz standart mode
 106:/home/arhat109/Arduino/libraries/Arhat/arhat_twi2.h ****  * @example twiSetRate(0,0)  : use 1 Mhz mode
 107:/home/arhat109/Arduino/libraries/Arhat/arhat_twi2.h ****  */
 108:/home/arhat109/Arduino/libraries/Arhat/arhat_twi2.h **** #define twiSetRate(_twbr, _twsr)      \
 109:/home/arhat109/Arduino/libraries/Arhat/arhat_twi2.h **** {                                     \
 110:/home/arhat109/Arduino/libraries/Arhat/arhat_twi2.h ****   _SFR_BYTE(TWSR) = (uint8_t)(_twsr); \
 111:/home/arhat109/Arduino/libraries/Arhat/arhat_twi2.h ****   TWBR = (uint8_t)(_twbr);            \
 112:/home/arhat109/Arduino/libraries/Arhat/arhat_twi2.h **** }
 113:/home/arhat109/Arduino/libraries/Arhat/arhat_twi2.h **** /**
 114:/home/arhat109/Arduino/libraries/Arhat/arhat_twi2.h ****  * –ú–∞–∫—Ä–æ—Å—ã —É–ø—Ä–∞–≤–ª–µ–Ω–∏—è –∞–≤—Ç–æ–º–∞—Ç–æ–º TWI: –ø–æ—Å–ª–µ–¥–Ω—è—è –∫–æ–º–∞–Ω–¥–∞ –≤
 115:/home/arhat109/Arduino/libraries/Arhat/arhat_twi2.h ****  *
 116:/home/arhat109/Arduino/libraries/Arhat/arhat_twi2.h ****  * @param bool ack -- –µ—Å—Ç—å –ª–∏ —Ä–µ–∂–∏–º—ã Slave, –Ω–∞–¥–æ –ª–∏ —Å–ª—É—à–∞—Ç—å —à–∏–Ω—É?
 117:/home/arhat109/Arduino/libraries/Arhat/arhat_twi2.h ****  *
 118:/home/arhat109/Arduino/libraries/Arhat/arhat_twi2.h ****  * twiStart()      -- –≤–∫–ª—é—á–∞–µ–º, —Ä–∞–∑—Ä–µ—à–∞–µ–º, —Å–±—Ä–æ—Å –ø—Ä–µ—Ä—ã–≤–∞–Ω–∏–µ(–∑–∞–ø—
 119:/home/arhat109/Arduino/libraries/Arhat/arhat_twi2.h ****  * twiReply()      -- –æ–Ω–æ –∂–µ, —Ç–æ–ª—å–∫–æ –±–µ–∑ —Å—Ç–∞—Ä—Ç–∞
 120:/home/arhat109/Arduino/libraries/Arhat/arhat_twi2.h ****  * twiReleaseBus() -- –≤–∫–ª—é—á–∞–µ–º, —Å–±—Ä–æ—Å –ø—Ä–µ—Ä—ã–≤–∞–Ω–∏–µ(–∑–∞–ø—É—Å–∫ –ö–ê), –∞ –≤–æ
 121:/home/arhat109/Arduino/libraries/Arhat/arhat_twi2.h ****  * twiStop()       -- –æ–Ω–æ –∂–µ, —Ç–æ–ª—å–∫–æ –µ—â—ë –∏ –æ—Ç–ø—Ä–∞–≤–ª—è–µ–º "—Å—Ç–æ–ø" –≤ —à–∏–Ω
 122:/home/arhat109/Arduino/libraries/Arhat/arhat_twi2.h ****  */
 123:/home/arhat109/Arduino/libraries/Arhat/arhat_twi2.h **** #define twiStart(ack)                   (_BV(TWEN)|_BV(TWINT)|_BV(TWIE)|_BV(TWSTA)|((ack)?_BV(TWEA)
 124:/home/arhat109/Arduino/libraries/Arhat/arhat_twi2.h **** #define twiReply(ack)                   (_BV(TWEN)|_BV(TWINT)|_BV(TWIE)|((ack)? _BV(TWEA):0))
 125:/home/arhat109/Arduino/libraries/Arhat/arhat_twi2.h **** #define twiReleaseBus(ack)              (_BV(TWEN)|_BV(TWINT)|((ack)? _BV(TWEA)|_BV(TWIE):0))
 126:/home/arhat109/Arduino/libraries/Arhat/arhat_twi2.h **** #define twiSetAddress(address, isGcall) (TWAR  = (uint8_t)(((address) << 1)|((isGcall)&0x01)))
 127:/home/arhat109/Arduino/libraries/Arhat/arhat_twi2.h **** #define twiSetMaskAddress(mask)         (TWAMR = (uint8_t)(mask))
 128:/home/arhat109/Arduino/libraries/Arhat/arhat_twi2.h **** #define twiStop(ack)                    \
 129:/home/arhat109/Arduino/libraries/Arhat/arhat_twi2.h **** {                                       \
 130:/home/arhat109/Arduino/libraries/Arhat/arhat_twi2.h ****   TWCR = _BV(TWSTO)|twiReleaseBus(ack); \
 131:/home/arhat109/Arduino/libraries/Arhat/arhat_twi2.h ****   while(TWCR & _BV(TWSTO));             \
 132:/home/arhat109/Arduino/libraries/Arhat/arhat_twi2.h ****   twiMode |= TWI_READY;                 \
 133:/home/arhat109/Arduino/libraries/Arhat/arhat_twi2.h **** }
 134:/home/arhat109/Arduino/libraries/Arhat/arhat_twi2.h **** 
 135:/home/arhat109/Arduino/libraries/Arhat/arhat_twi2.h **** #ifdef __cplusplus
 136:/home/arhat109/Arduino/libraries/Arhat/arhat_twi2.h ****     extern "C" {
 137:/home/arhat109/Arduino/libraries/Arhat/arhat_twi2.h **** #endif
 138:/home/arhat109/Arduino/libraries/Arhat/arhat_twi2.h **** // ------------ TWI internal variables ------------- //
 139:/home/arhat109/Arduino/libraries/Arhat/arhat_twi2.h **** 
 140:/home/arhat109/Arduino/libraries/Arhat/arhat_twi2.h **** enum TWI_Modes {
 141:/home/arhat109/Arduino/libraries/Arhat/arhat_twi2.h ****      TWI_IS_SLAVE  = 1                                  // have I slave mode too?
 142:/home/arhat109/Arduino/libraries/Arhat/arhat_twi2.h ****     ,TWI_SEND_STOP = 2                                  // is need send stop when Master is ending?
 143:/home/arhat109/Arduino/libraries/Arhat/arhat_twi2.h ****     ,TWI_READY     = 4                                  // previous work is ended
 144:/home/arhat109/Arduino/libraries/Arhat/arhat_twi2.h **** };
 145:/home/arhat109/Arduino/libraries/Arhat/arhat_twi2.h **** 
 146:/home/arhat109/Arduino/libraries/Arhat/arhat_twi2.h **** volatile uint8_t    twiMode;
 147:/home/arhat109/Arduino/libraries/Arhat/arhat_twi2.h **** volatile uint8_t    twiState;                           // state TWI automat
 148:/home/arhat109/Arduino/libraries/Arhat/arhat_twi2.h **** volatile uint8_t    twiSLARW;                           // address for send to (SLARW)
 149:/home/arhat109/Arduino/libraries/Arhat/arhat_twi2.h **** 
 150:/home/arhat109/Arduino/libraries/Arhat/arhat_twi2.h **** volatile uint8_t   twiMT_Count;                         // –æ—Å—Ç–∞—Ç–æ–∫ –±–∞–π—Ç –¥–ª—è –ø–µ—Ä–µ–
 151:/home/arhat109/Arduino/libraries/Arhat/arhat_twi2.h **** volatile uint8_t  * twiMT_Ptr;                          // —É–∫–∞–∑–∞—Ç–µ–ª—å —Ç–µ–∫—É—â–µ–≥–æ –±–∞
 152:/home/arhat109/Arduino/libraries/Arhat/arhat_twi2.h **** 
 153:/home/arhat109/Arduino/libraries/Arhat/arhat_twi2.h **** volatile uint8_t   twiRX_Count;                         // –æ—Å—Ç–∞—Ç–æ–∫ –±–∞–π—Ç –¥–ª—è –ø—Ä–∏–µ–
 154:/home/arhat109/Arduino/libraries/Arhat/arhat_twi2.h **** volatile uint8_t  * twiRX_Ptr;                          // —É–∫–∞–∑–∞—Ç–µ–ª—å —Ç–µ–∫—É—â–µ–≥–æ –±–∞
 155:/home/arhat109/Arduino/libraries/Arhat/arhat_twi2.h **** 
GAS LISTING /tmp/ccfXOBLh.s 			page 4


 156:/home/arhat109/Arduino/libraries/Arhat/arhat_twi2.h **** volatile uint8_t   twiST_Count;                         // –æ—Å—Ç–∞—Ç–æ–∫ –±–∞–π—Ç –¥–ª—è –ø–µ—Ä–µ–
 157:/home/arhat109/Arduino/libraries/Arhat/arhat_twi2.h **** volatile uint8_t  * twiST_Ptr;                          // —É–∫–∞–∑–∞—Ç–µ–ª—å —Ç–µ–∫—É—â–µ–≥–æ –±–∞
 158:/home/arhat109/Arduino/libraries/Arhat/arhat_twi2.h **** 
 159:/home/arhat109/Arduino/libraries/Arhat/arhat_twi2.h **** volatile void    (* twiHookRestart)(void) = 0;          // —É–∫–∞–∑–∞—Ç–µ–ª—å –Ω–∞ —Ñ—É–Ω–∫—Ü–∏—é –
 160:/home/arhat109/Arduino/libraries/Arhat/arhat_twi2.h **** volatile void    (* twiMasterReader)(void) = 0;         // —É–∫–∞–∑–∞—Ç–µ–ª—å –Ω–∞ —Ñ—É–Ω–∫—Ü–∏—é "
 161:/home/arhat109/Arduino/libraries/Arhat/arhat_twi2.h **** volatile void    (* twiSlaveReader)(void) = 0;          // —É–∫–∞–∑–∞—Ç–µ–ª—å –Ω–∞ —Ñ—É–Ω–∫—Ü–∏—é "
 162:/home/arhat109/Arduino/libraries/Arhat/arhat_twi2.h **** volatile void    (* twiSlaveWriter)(void) = 0;          // —É–∫–∞–∑–∞—Ç–µ–ª—å –Ω–∞ —Ñ—É–Ω–∫—Ü–∏—é "
 163:/home/arhat109/Arduino/libraries/Arhat/arhat_twi2.h **** 
 164:/home/arhat109/Arduino/libraries/Arhat/arhat_twi2.h **** #ifdef TWI_LOG_ON
 165:/home/arhat109/Arduino/libraries/Arhat/arhat_twi2.h **** 
 166:/home/arhat109/Arduino/libraries/Arhat/arhat_twi2.h **** typedef struct {
 167:/home/arhat109/Arduino/libraries/Arhat/arhat_twi2.h ****     uint16_t   starts,restarts,stops,losts,noslarw,mtx,mrx,srx,grx,stx;
 168:/home/arhat109/Arduino/libraries/Arhat/arhat_twi2.h **** } TWI_Stat;
 169:/home/arhat109/Arduino/libraries/Arhat/arhat_twi2.h **** #define ptrTWI_Stat(ptr)  ((TWI_Stat *)(ptr))
 170:/home/arhat109/Arduino/libraries/Arhat/arhat_twi2.h **** static volatile TWI_Stat    twiStatistic;
 171:/home/arhat109/Arduino/libraries/Arhat/arhat_twi2.h **** 
 172:/home/arhat109/Arduino/libraries/Arhat/arhat_twi2.h **** #endif // TWI_LOG_ON
 173:/home/arhat109/Arduino/libraries/Arhat/arhat_twi2.h **** 
 174:/home/arhat109/Arduino/libraries/Arhat/arhat_twi2.h **** // ------------ TWI functions ------------- //
 175:/home/arhat109/Arduino/libraries/Arhat/arhat_twi2.h **** 
 176:/home/arhat109/Arduino/libraries/Arhat/arhat_twi2.h **** /**
 177:/home/arhat109/Arduino/libraries/Arhat/arhat_twi2.h ****  * Autocalculate and set twi prescaler and bit rate
 178:/home/arhat109/Arduino/libraries/Arhat/arhat_twi2.h ****  * 1Mhz      .. 30.418khz : TWSR=0!
 179:/home/arhat109/Arduino/libraries/Arhat/arhat_twi2.h ****  * 30.42khz  ..  7.782khz : TWSR=1
 180:/home/arhat109/Arduino/libraries/Arhat/arhat_twi2.h ****  *  7.782khz ..  1.960khz : TWSR=2
 181:/home/arhat109/Arduino/libraries/Arhat/arhat_twi2.h ****  *  1/960khz ..  0.490khz : TWSR=3
 182:/home/arhat109/Arduino/libraries/Arhat/arhat_twi2.h ****  */
 183:/home/arhat109/Arduino/libraries/Arhat/arhat_twi2.h **** void twiSpeed(uint32_t freq)
 184:/home/arhat109/Arduino/libraries/Arhat/arhat_twi2.h **** {
  17               		.loc 1 184 0
  18               		.cfi_startproc
  19               	.LVL0:
  20               	/* prologue: function */
  21               	/* frame size = 0 */
  22               	/* stack size = 0 */
  23               	.L__stack_usage = 0
  24 0000 9B01      		movw r18,r22
  25 0002 AC01      		movw r20,r24
  26               	.LBB2:
 185:/home/arhat109/Arduino/libraries/Arhat/arhat_twi2.h ****     uint16_t bitRate = (F_CPU / freq) - 16;
  27               		.loc 1 185 0
  28 0004 60E0      		ldi r22,0
  29 0006 74E2      		ldi r23,lo8(36)
  30 0008 84EF      		ldi r24,lo8(-12)
  31 000a 90E0      		ldi r25,0
  32               	.LVL1:
  33 000c 0E94 0000 		call __udivmodsi4
  34               	.LVL2:
  35 0010 2051      		subi r18,16
  36 0012 3109      		sbc r19,__zero_reg__
  37               	.LVL3:
 186:/home/arhat109/Arduino/libraries/Arhat/arhat_twi2.h ****     uint8_t  bitMul  = 0;
  38               		.loc 1 186 0
  39 0014 80E0      		ldi r24,0
  40               	.LVL4:
  41               	.L2:
 187:/home/arhat109/Arduino/libraries/Arhat/arhat_twi2.h **** 
GAS LISTING /tmp/ccfXOBLh.s 			page 5


 188:/home/arhat109/Arduino/libraries/Arhat/arhat_twi2.h ****     while( (bitRate > 511) && (bitMul < 3) ){
  42               		.loc 1 188 0 discriminator 1
  43 0016 2115      		cp r18,__zero_reg__
  44 0018 92E0      		ldi r25,2
  45 001a 3907      		cpc r19,r25
  46 001c 00F0      		brlo .L3
  47               		.loc 1 188 0 is_stmt 0 discriminator 2
  48 001e 8330      		cpi r24,lo8(3)
  49 0020 01F0      		breq .L3
 189:/home/arhat109/Arduino/libraries/Arhat/arhat_twi2.h ****         bitRate /= 4; bitRate += 1; bitMul++;
  50               		.loc 1 189 0 is_stmt 1
  51 0022 3695      		lsr r19
  52 0024 2795      		ror r18
  53 0026 3695      		lsr r19
  54 0028 2795      		ror r18
  55               	.LVL5:
  56 002a 2F5F      		subi r18,-1
  57 002c 3F4F      		sbci r19,-1
  58               	.LVL6:
  59 002e 8F5F      		subi r24,lo8(-(1))
  60               	.LVL7:
  61 0030 00C0      		rjmp .L2
  62               	.L3:
 190:/home/arhat109/Arduino/libraries/Arhat/arhat_twi2.h ****     }
 191:/home/arhat109/Arduino/libraries/Arhat/arhat_twi2.h ****     bitRate /= 2;
  63               		.loc 1 191 0
  64 0032 3695      		lsr r19
  65 0034 2795      		ror r18
  66               	.LVL8:
 192:/home/arhat109/Arduino/libraries/Arhat/arhat_twi2.h ****     if( bitRate > 255 ) return;
  67               		.loc 1 192 0
  68 0036 2F3F      		cpi r18,-1
  69 0038 3105      		cpc r19,__zero_reg__
  70 003a 01F0      		breq .+2
  71 003c 00F4      		brsh .L1
 193:/home/arhat109/Arduino/libraries/Arhat/arhat_twi2.h ****     twiSetRate(bitRate, bitMul);
  72               		.loc 1 193 0
  73 003e 8093 B900 		sts 185,r24
  74 0042 2093 B800 		sts 184,r18
  75               	.L1:
  76 0046 0895      		ret
  77               	.LBE2:
  78               		.cfi_endproc
  79               	.LFE102:
  80               		.size	twiSpeed, .-twiSpeed
  81               		.section	.text.twiSetup,"ax",@progbits
  82               	.global	twiSetup
  83               		.type	twiSetup, @function
  84               	twiSetup:
  85               	.LFB103:
 194:/home/arhat109/Arduino/libraries/Arhat/arhat_twi2.h **** }
 195:/home/arhat109/Arduino/libraries/Arhat/arhat_twi2.h **** 
 196:/home/arhat109/Arduino/libraries/Arhat/arhat_twi2.h **** /**
 197:/home/arhat109/Arduino/libraries/Arhat/arhat_twi2.h ****  * for Arduino setup() as Master or Slave or Both modes
 198:/home/arhat109/Arduino/libraries/Arhat/arhat_twi2.h ****  * freq:[490 .. 1 000 000], mode:[0,TWI_IS_SLAVE]
 199:/home/arhat109/Arduino/libraries/Arhat/arhat_twi2.h ****  */
 200:/home/arhat109/Arduino/libraries/Arhat/arhat_twi2.h **** void twiSetup(uint32_t freq, uint8_t mode)
GAS LISTING /tmp/ccfXOBLh.s 			page 6


 201:/home/arhat109/Arduino/libraries/Arhat/arhat_twi2.h **** {
  86               		.loc 1 201 0
  87               		.cfi_startproc
  88               	.LVL9:
  89 0000 CF93      		push r28
  90               	.LCFI0:
  91               		.cfi_def_cfa_offset 4
  92               		.cfi_offset 28, -3
  93 0002 DF93      		push r29
  94               	.LCFI1:
  95               		.cfi_def_cfa_offset 5
  96               		.cfi_offset 29, -4
  97 0004 1F92      		push __zero_reg__
  98               	.LCFI2:
  99               		.cfi_def_cfa_offset 6
 100 0006 CDB7      		in r28,__SP_L__
 101 0008 DEB7      		in r29,__SP_H__
 102               	.LCFI3:
 103               		.cfi_def_cfa_register 28
 104               	/* prologue: function */
 105               	/* frame size = 1 */
 106               	/* stack size = 3 */
 107               	.L__stack_usage = 3
 202:/home/arhat109/Arduino/libraries/Arhat/arhat_twi2.h ****     digitalWrite(I2C_SDA, HIGH);                                  // internal pullup is ON.
 108               		.loc 1 202 0
 109 000a 599A      		sbi 0xb,1
 203:/home/arhat109/Arduino/libraries/Arhat/arhat_twi2.h ****     digitalWrite(I2C_SCL, HIGH);
 110               		.loc 1 203 0
 111 000c 589A      		sbi 0xb,0
 204:/home/arhat109/Arduino/libraries/Arhat/arhat_twi2.h ****     twiSpeed(freq);                                               // set bitrate and prescaler for 
 112               		.loc 1 204 0
 113 000e 4983      		std Y+1,r20
 114 0010 0E94 0000 		call twiSpeed
 115               	.LVL10:
 205:/home/arhat109/Arduino/libraries/Arhat/arhat_twi2.h ****     twiMode = mode;
 116               		.loc 1 205 0
 117 0014 4981      		ldd r20,Y+1
 118 0016 4093 0000 		sts twiMode,r20
 206:/home/arhat109/Arduino/libraries/Arhat/arhat_twi2.h ****     TWCR = _BV(TWEN)|_BV(TWIE)|((mode&TWI_IS_SLAVE)?_BV(TWEA):0); // module, acks, and interrupt is
 119               		.loc 1 206 0
 120 001a 40FF      		sbrs r20,0
 121 001c 00C0      		rjmp .L9
 122 001e 85E4      		ldi r24,lo8(69)
 123 0020 00C0      		rjmp .L8
 124               	.L9:
 125 0022 85E0      		ldi r24,lo8(5)
 126               	.L8:
 127               		.loc 1 206 0 is_stmt 0 discriminator 3
 128 0024 8093 BC00 		sts 188,r24
 129               	/* epilogue start */
 207:/home/arhat109/Arduino/libraries/Arhat/arhat_twi2.h **** }
 130               		.loc 1 207 0 is_stmt 1 discriminator 3
 131 0028 0F90      		pop __tmp_reg__
 132 002a DF91      		pop r29
 133 002c CF91      		pop r28
 134 002e 0895      		ret
 135               		.cfi_endproc
GAS LISTING /tmp/ccfXOBLh.s 			page 7


 136               	.LFE103:
 137               		.size	twiSetup, .-twiSetup
 138               		.section	.text.twiSendStop,"ax",@progbits
 139               	.global	twiSendStop
 140               		.type	twiSendStop, @function
 141               	twiSendStop:
 142               	.LFB104:
 208:/home/arhat109/Arduino/libraries/Arhat/arhat_twi2.h **** 
 209:/home/arhat109/Arduino/libraries/Arhat/arhat_twi2.h **** /**
 210:/home/arhat109/Arduino/libraries/Arhat/arhat_twi2.h ****  * for ISR(TWI): control restart conditions in all modes:
 211:/home/arhat109/Arduino/libraries/Arhat/arhat_twi2.h ****  *
 212:/home/arhat109/Arduino/libraries/Arhat/arhat_twi2.h ****  * 1. –û—Å–≤–æ–±–æ–∂–¥–∞—Ç—å —à–∏–Ω—É, –∏–ª–∏ –Ω–∞–¥–æ –µ—â—ë (–Ω–∞–ø—Ä. –ø—Ä–∏–µ–º –ø–æ—Å–ª–µ –ø–µ
 213:/home/arhat109/Arduino/libraries/Arhat/arhat_twi2.h ****  * –¥–∞: –°–µ–∞–Ω—Å –∑–∞–≤–µ—Ä—à–µ–Ω. –ñ–¥–µ–º –ø—Ä—è–º–æ —Ç—É—Ç –ø—Ä–æ—Ö–æ–∂–¥–µ–Ω–∏—è —Å—Ç–æ–ø–∞!
 214:/home/arhat109/Arduino/libraries/Arhat/arhat_twi2.h ****  * –Ω–µ—Ç, —Ä–µ—Å—Ç–∞—Ä—Ç:
 215:/home/arhat109/Arduino/libraries/Arhat/arhat_twi2.h ****  * .. –µ—Å—Ç—å –•—É–∫? –ø—Ä–æ—Ü–µ–¥—É—Ä–∞ –ø–æ–¥–≥–æ—Ç–æ–≤–∫–∏ —Å–ª–µ–¥. –ø–æ—Å—ã–ª–∫–∏: —É–∫–∞–∑–∞
 216:/home/arhat109/Arduino/libraries/Arhat/arhat_twi2.h ****  * .. –∞ –Ω–µ—Ç –•—É–∫–∞! –¢–∏–ø–æ–≤–æ–π —Ä–µ–∂–∏–º "—á—Ç–µ–Ω–∏–µ –ø–æ—Å–ª–µ –∑–∞–ø–∏—Å–∏"
 217:/home/arhat109/Arduino/libraries/Arhat/arhat_twi2.h ****  * –≤ –ª—é–±–æ–º —Å–ª—É—á–∞–µ –æ—Ç–ø—Ä–∞–≤–ª—è–µ–º restart
 218:/home/arhat109/Arduino/libraries/Arhat/arhat_twi2.h ****  *
 219:/home/arhat109/Arduino/libraries/Arhat/arhat_twi2.h ****  * @return command for TWCR
 220:/home/arhat109/Arduino/libraries/Arhat/arhat_twi2.h ****  *//*
 221:/home/arhat109/Arduino/libraries/Arhat/arhat_twi2.h **** #define twiSendStop(_md, _cr)                                \
 222:/home/arhat109/Arduino/libraries/Arhat/arhat_twi2.h **** {                                                            \
 223:/home/arhat109/Arduino/libraries/Arhat/arhat_twi2.h ****     if (_md & TWI_SEND_STOP)                                 \
 224:/home/arhat109/Arduino/libraries/Arhat/arhat_twi2.h ****     {                                                        \
 225:/home/arhat109/Arduino/libraries/Arhat/arhat_twi2.h ****         TWCR = _BV(TWSTO)|twiReleaseBus(_md & TWI_IS_SLAVE); \
 226:/home/arhat109/Arduino/libraries/Arhat/arhat_twi2.h ****         while(TWCR & _BV(TWSTO));                            \
 227:/home/arhat109/Arduino/libraries/Arhat/arhat_twi2.h ****         twiMode |= TWI_READY;                                \
 228:/home/arhat109/Arduino/libraries/Arhat/arhat_twi2.h ****         return;                                              \
 229:/home/arhat109/Arduino/libraries/Arhat/arhat_twi2.h ****     }else{                                                   \
 230:/home/arhat109/Arduino/libraries/Arhat/arhat_twi2.h ****         if( twiHookRestart ){                                \
 231:/home/arhat109/Arduino/libraries/Arhat/arhat_twi2.h ****             twiHookRestart();                                \
 232:/home/arhat109/Arduino/libraries/Arhat/arhat_twi2.h ****         } else {                                             \
 233:/home/arhat109/Arduino/libraries/Arhat/arhat_twi2.h ****             twiSLARW |= TWI_READ;                            \
 234:/home/arhat109/Arduino/libraries/Arhat/arhat_twi2.h ****         }                                                    \
 235:/home/arhat109/Arduino/libraries/Arhat/arhat_twi2.h ****         _cr = twiStart(_md & TWI_IS_SLAVE);                  \
 236:/home/arhat109/Arduino/libraries/Arhat/arhat_twi2.h ****     }                                                        \
 237:/home/arhat109/Arduino/libraries/Arhat/arhat_twi2.h **** }
 238:/home/arhat109/Arduino/libraries/Arhat/arhat_twi2.h **** */
 239:/home/arhat109/Arduino/libraries/Arhat/arhat_twi2.h **** void twiSendStop(uint8_t _md)
 240:/home/arhat109/Arduino/libraries/Arhat/arhat_twi2.h **** {
 143               		.loc 1 240 0
 144               		.cfi_startproc
 145               	.LVL11:
 146 0000 CF93      		push r28
 147               	.LCFI4:
 148               		.cfi_def_cfa_offset 4
 149               		.cfi_offset 28, -3
 150               	/* prologue: function */
 151               	/* frame size = 0 */
 152               	/* stack size = 1 */
 153               	.L__stack_usage = 1
 154 0002 C82F      		mov r28,r24
 155 0004 C170      		andi r28,lo8(1)
 241:/home/arhat109/Arduino/libraries/Arhat/arhat_twi2.h ****     if (_md & TWI_SEND_STOP)
 156               		.loc 1 241 0
 157 0006 81FF      		sbrs r24,1
 158 0008 00C0      		rjmp .L11
GAS LISTING /tmp/ccfXOBLh.s 			page 8


 242:/home/arhat109/Arduino/libraries/Arhat/arhat_twi2.h ****     {
 243:/home/arhat109/Arduino/libraries/Arhat/arhat_twi2.h ****         TWCR = _BV(TWSTO)|twiReleaseBus(_md & TWI_IS_SLAVE);
 159               		.loc 1 243 0
 160 000a CC23      		tst r28
 161 000c 01F0      		breq .L19
 162 000e 85ED      		ldi r24,lo8(-43)
 163               	.LVL12:
 164 0010 00C0      		rjmp .L12
 165               	.LVL13:
 166               	.L19:
 167 0012 84E9      		ldi r24,lo8(-108)
 168               	.LVL14:
 169               	.L12:
 170               		.loc 1 243 0 is_stmt 0 discriminator 3
 171 0014 8093 BC00 		sts 188,r24
 172               	.L14:
 244:/home/arhat109/Arduino/libraries/Arhat/arhat_twi2.h ****         while(TWCR & _BV(TWSTO));
 173               		.loc 1 244 0 is_stmt 1 discriminator 1
 174 0018 8091 BC00 		lds r24,188
 175 001c 84FD      		sbrc r24,4
 176 001e 00C0      		rjmp .L14
 245:/home/arhat109/Arduino/libraries/Arhat/arhat_twi2.h ****         twiMode |= TWI_READY;
 177               		.loc 1 245 0
 178 0020 8091 0000 		lds r24,twiMode
 179 0024 8460      		ori r24,lo8(4)
 180 0026 8093 0000 		sts twiMode,r24
 181 002a 00C0      		rjmp .L10
 182               	.LVL15:
 183               	.L11:
 246:/home/arhat109/Arduino/libraries/Arhat/arhat_twi2.h ****     }else{
 247:/home/arhat109/Arduino/libraries/Arhat/arhat_twi2.h ****         if( twiHookRestart ){
 184               		.loc 1 247 0
 185 002c E091 0000 		lds r30,twiHookRestart
 186 0030 F091 0000 		lds r31,twiHookRestart+1
 187 0034 3097      		sbiw r30,0
 188 0036 01F0      		breq .L16
 248:/home/arhat109/Arduino/libraries/Arhat/arhat_twi2.h ****             twiHookRestart();
 189               		.loc 1 248 0
 190 0038 1995      		eicall
 191               	.LVL16:
 192 003a 00C0      		rjmp .L17
 193               	.LVL17:
 194               	.L16:
 249:/home/arhat109/Arduino/libraries/Arhat/arhat_twi2.h ****         } else {
 250:/home/arhat109/Arduino/libraries/Arhat/arhat_twi2.h ****             twiSLARW |= TWI_READ;
 195               		.loc 1 250 0
 196 003c 8091 0000 		lds r24,twiSLARW
 197               	.LVL18:
 198 0040 8160      		ori r24,lo8(1)
 199 0042 8093 0000 		sts twiSLARW,r24
 200               	.L17:
 251:/home/arhat109/Arduino/libraries/Arhat/arhat_twi2.h ****         }
 252:/home/arhat109/Arduino/libraries/Arhat/arhat_twi2.h ****         TWCR = twiStart(_md & TWI_IS_SLAVE);
 201               		.loc 1 252 0
 202 0046 CC23      		tst r28
 203 0048 01F0      		breq .L20
 204 004a 85EE      		ldi r24,lo8(-27)
GAS LISTING /tmp/ccfXOBLh.s 			page 9


 205 004c 00C0      		rjmp .L18
 206               	.L20:
 207 004e 85EA      		ldi r24,lo8(-91)
 208               	.L18:
 209               		.loc 1 252 0 is_stmt 0 discriminator 3
 210 0050 8093 BC00 		sts 188,r24
 211               	.L10:
 212               	/* epilogue start */
 253:/home/arhat109/Arduino/libraries/Arhat/arhat_twi2.h ****     }
 254:/home/arhat109/Arduino/libraries/Arhat/arhat_twi2.h **** }
 213               		.loc 1 254 0 is_stmt 1
 214 0054 CF91      		pop r28
 215 0056 0895      		ret
 216               		.cfi_endproc
 217               	.LFE104:
 218               		.size	twiSendStop, .-twiSendStop
 219               		.section	.text.__vector_39,"ax",@progbits
 220               	.global	__vector_39
 221               		.type	__vector_39, @function
 222               	__vector_39:
 223               	.LFB105:
 255:/home/arhat109/Arduino/libraries/Arhat/arhat_twi2.h **** 
 256:/home/arhat109/Arduino/libraries/Arhat/arhat_twi2.h **** /**
 257:/home/arhat109/Arduino/libraries/Arhat/arhat_twi2.h ****  * ISR for TWI interface: realised master and slave modes
 258:/home/arhat109/Arduino/libraries/Arhat/arhat_twi2.h ****  * ------------------------------------------------------
 259:/home/arhat109/Arduino/libraries/Arhat/arhat_twi2.h ****  */
 260:/home/arhat109/Arduino/libraries/Arhat/arhat_twi2.h **** ISR(TWI_vect)
 261:/home/arhat109/Arduino/libraries/Arhat/arhat_twi2.h **** {
 224               		.loc 1 261 0
 225               		.cfi_startproc
 226 0000 1F92      		push r1
 227               	.LCFI5:
 228               		.cfi_def_cfa_offset 4
 229               		.cfi_offset 1, -3
 230 0002 0F92      		push r0
 231               	.LCFI6:
 232               		.cfi_def_cfa_offset 5
 233               		.cfi_offset 0, -4
 234 0004 0FB6      		in r0,__SREG__
 235 0006 0F92      		push r0
 236 0008 1124      		clr __zero_reg__
 237 000a 0BB6      		in r0,__RAMPZ__
 238 000c 0F92      		push r0
 239 000e 2F93      		push r18
 240               	.LCFI7:
 241               		.cfi_def_cfa_offset 6
 242               		.cfi_offset 18, -5
 243 0010 3F93      		push r19
 244               	.LCFI8:
 245               		.cfi_def_cfa_offset 7
 246               		.cfi_offset 19, -6
 247 0012 4F93      		push r20
 248               	.LCFI9:
 249               		.cfi_def_cfa_offset 8
 250               		.cfi_offset 20, -7
 251 0014 5F93      		push r21
 252               	.LCFI10:
GAS LISTING /tmp/ccfXOBLh.s 			page 10


 253               		.cfi_def_cfa_offset 9
 254               		.cfi_offset 21, -8
 255 0016 6F93      		push r22
 256               	.LCFI11:
 257               		.cfi_def_cfa_offset 10
 258               		.cfi_offset 22, -9
 259 0018 7F93      		push r23
 260               	.LCFI12:
 261               		.cfi_def_cfa_offset 11
 262               		.cfi_offset 23, -10
 263 001a 8F93      		push r24
 264               	.LCFI13:
 265               		.cfi_def_cfa_offset 12
 266               		.cfi_offset 24, -11
 267 001c 9F93      		push r25
 268               	.LCFI14:
 269               		.cfi_def_cfa_offset 13
 270               		.cfi_offset 25, -12
 271 001e AF93      		push r26
 272               	.LCFI15:
 273               		.cfi_def_cfa_offset 14
 274               		.cfi_offset 26, -13
 275 0020 BF93      		push r27
 276               	.LCFI16:
 277               		.cfi_def_cfa_offset 15
 278               		.cfi_offset 27, -14
 279 0022 EF93      		push r30
 280               	.LCFI17:
 281               		.cfi_def_cfa_offset 16
 282               		.cfi_offset 30, -15
 283 0024 FF93      		push r31
 284               	.LCFI18:
 285               		.cfi_def_cfa_offset 17
 286               		.cfi_offset 31, -16
 287               	/* prologue: Signal */
 288               	/* frame size = 0 */
 289               	/* stack size = 16 */
 290               	.L__stack_usage = 16
 291               	.LBB3:
 262:/home/arhat109/Arduino/libraries/Arhat/arhat_twi2.h ****     uint8_t _cr;
 263:/home/arhat109/Arduino/libraries/Arhat/arhat_twi2.h ****     uint8_t _md = twiMode;
 292               		.loc 1 263 0
 293 0026 3091 0000 		lds r19,twiMode
 294               	.LVL19:
 264:/home/arhat109/Arduino/libraries/Arhat/arhat_twi2.h ****     uint8_t _st = twiState=TWI_STATUS;
 295               		.loc 1 264 0
 296 002a 8091 B900 		lds r24,185
 297 002e 982F      		mov r25,r24
 298 0030 987F      		andi r25,lo8(-8)
 299 0032 9093 0000 		sts twiState,r25
 300               	.LVL20:
 265:/home/arhat109/Arduino/libraries/Arhat/arhat_twi2.h **** 
 266:/home/arhat109/Arduino/libraries/Arhat/arhat_twi2.h **** #if defined(TWI_ON) && ((TWI_ON & TWI_IS_SLAVE_TX)||(TWI_ON & TWI_IS_SLAVE_RX))
 267:/home/arhat109/Arduino/libraries/Arhat/arhat_twi2.h ****     if( _st >= TWI_SR_SLA_ACK )
 301               		.loc 1 267 0
 302 0036 9036      		cpi r25,lo8(96)
 303 0038 00F0      		brlo .L22
GAS LISTING /tmp/ccfXOBLh.s 			page 11


 268:/home/arhat109/Arduino/libraries/Arhat/arhat_twi2.h ****     {
 269:/home/arhat109/Arduino/libraries/Arhat/arhat_twi2.h **** #if (TWI_ON & TWI_IS_SLAVE_TX)
 270:/home/arhat109/Arduino/libraries/Arhat/arhat_twi2.h ****         if( (_st == TWI_ST_DATA_NACK) || (_st == TWI_ST_LAST_DATA) )
 304               		.loc 1 270 0
 305 003a 482F      		mov r20,r24
 306 003c 407F      		andi r20,lo8(-16)
 307 003e 403C      		cpi r20,lo8(-64)
 308 0040 01F4      		brne .L23
 271:/home/arhat109/Arduino/libraries/Arhat/arhat_twi2.h ****         {
 272:/home/arhat109/Arduino/libraries/Arhat/arhat_twi2.h ****             // ST: –ë—ã–ª –ø–æ—Å–ª–µ–¥–Ω–∏–π –±–∞–π—Ç, –º–∞—Å—Ç–µ—Ä –Ω–∞–µ–ª—Å—è ..
 273:/home/arhat109/Arduino/libraries/Arhat/arhat_twi2.h ****             // ST: –ë—ã–ª –Ω–∞—à –ø–æ—Å–ª–µ–¥–Ω–∏–π –±–∞–π—Ç: –ø—Ä–µ–¥—É–ø—Ä–µ–∂–¥–∞–ª–∏ –º–∞—Å—Ç–µ
 274:/home/arhat109/Arduino/libraries/Arhat/arhat_twi2.h ****             twiSlaveWriter();                                   // –•—É–∫ - –æ–±—è–∑–∞—Ç–µ–ª–µ–Ω!
 309               		.loc 1 274 0
 310 0042 E091 0000 		lds r30,twiSlaveWriter
 311 0046 F091 0000 		lds r31,twiSlaveWriter+1
 312 004a 1995      		eicall
 313               	.LVL21:
 275:/home/arhat109/Arduino/libraries/Arhat/arhat_twi2.h ****             _md=twiMode;                                        // –≤–æ–∑–º–æ–∂–Ω–æ –∏–∑–º–µ–Ω–µ–Ω–
 314               		.loc 1 275 0
 315 004c 8091 0000 		lds r24,twiMode
 316               	.LVL22:
 276:/home/arhat109/Arduino/libraries/Arhat/arhat_twi2.h ****             twiSendStop(_md); return;
 317               		.loc 1 276 0
 318 0050 0E94 0000 		call twiSendStop
 319               	.LVL23:
 320 0054 00C0      		rjmp .L21
 321               	.LVL24:
 322               	.L23:
 277:/home/arhat109/Arduino/libraries/Arhat/arhat_twi2.h ****         }else{
 278:/home/arhat109/Arduino/libraries/Arhat/arhat_twi2.h ****             if( (_st == TWI_ST_ARB_LOST_SLA_ACK) || (_st == TWI_ST_SLA_ACK || _st == TWI_ST_DATA_AC
 323               		.loc 1 278 0
 324 0056 903B      		cpi r25,lo8(-80)
 325 0058 01F0      		breq .L25
 326               		.loc 1 278 0 is_stmt 0 discriminator 1
 327 005a 887E      		andi r24,lo8(-24)
 328 005c 883A      		cpi r24,lo8(-88)
 329 005e 01F4      		brne .L22
 330               	.L25:
 279:/home/arhat109/Arduino/libraries/Arhat/arhat_twi2.h ****             {
 280:/home/arhat109/Arduino/libraries/Arhat/arhat_twi2.h ****                 // ST: –ú–æ–µ–≥–æ –º–∞—Å—Ç–µ—Ä–∞ –∑–∞—Ç–∫–Ω—É–ª–∏ –∏ –ø—Ä–æ—Å—è—Ç –¥–∞–Ω–Ω—ã–µ ..
 281:/home/arhat109/Arduino/libraries/Arhat/arhat_twi2.h ****                 // ST: –ú–æ–π –∞–¥—Ä–µ—Å, –Ω–∞—á–∏–Ω–∞–µ–º ..
 282:/home/arhat109/Arduino/libraries/Arhat/arhat_twi2.h ****                 // ST: –û—Ç–ø—Ä–∞–≤–ª–µ–Ω–æ —É—Å–ø–µ—à–Ω–æ, –ø—Ä–æ–¥–æ–ª–∂–∞–µ–º ..
 283:/home/arhat109/Arduino/libraries/Arhat/arhat_twi2.h ****                 TWDR = *twiST_Ptr++;
 331               		.loc 1 283 0 is_stmt 1
 332 0060 E091 0000 		lds r30,twiST_Ptr
 333 0064 F091 0000 		lds r31,twiST_Ptr+1
 334 0068 CF01      		movw r24,r30
 335 006a 0196      		adiw r24,1
 336 006c 9093 0000 		sts twiST_Ptr+1,r25
 337 0070 8093 0000 		sts twiST_Ptr,r24
 338 0074 8081      		ld r24,Z
 339 0076 8093 BB00 		sts 187,r24
 284:/home/arhat109/Arduino/libraries/Arhat/arhat_twi2.h ****                 _cr = twiReply(--twiST_Count);
 340               		.loc 1 284 0
 341 007a 8091 0000 		lds r24,twiST_Count
 342 007e 8150      		subi r24,lo8(-(-1))
 343 0080 8093 0000 		sts twiST_Count,r24
GAS LISTING /tmp/ccfXOBLh.s 			page 12


 344 0084 8823      		tst r24
 345 0086 01F0      		breq .L26
 346 0088 25EC      		ldi r18,lo8(-59)
 347 008a 00C0      		rjmp .L22
 348               	.L26:
 349 008c 25E8      		ldi r18,lo8(-123)
 350               	.L22:
 351               	.LVL25:
 285:/home/arhat109/Arduino/libraries/Arhat/arhat_twi2.h ****             }else{
 286:/home/arhat109/Arduino/libraries/Arhat/arhat_twi2.h **** #endif // TWI_ON::TWI_IS_SLAVE_TX
 287:/home/arhat109/Arduino/libraries/Arhat/arhat_twi2.h **** #if (TWI_ON & TWI_IS_SLAVE_RX)
 288:/home/arhat109/Arduino/libraries/Arhat/arhat_twi2.h ****                 if( (_st == TWI_SR_GCALL_DATA_NACK) || (_st == TWI_SR_DATA_NACK) || (_st == TWI_SR_
 289:/home/arhat109/Arduino/libraries/Arhat/arhat_twi2.h ****                 {
 290:/home/arhat109/Arduino/libraries/Arhat/arhat_twi2.h ****                     if( (_st == TWI_SR_GCALL_DATA_NACK) || (_st == TWI_SR_DATA_NACK) )
 291:/home/arhat109/Arduino/libraries/Arhat/arhat_twi2.h ****                     {
 292:/home/arhat109/Arduino/libraries/Arhat/arhat_twi2.h ****                         // SR: –£–ü–°. GCall - —Ç—É–¥–∞ –∂–µ.
 293:/home/arhat109/Arduino/libraries/Arhat/arhat_twi2.h ****                         // SR: –£–ü–°. –ü–æ–ª—É—á–µ–Ω –±–∞–π—Ç, –º–∞—Å—Ç–µ—Ä—É —É–∂–µ –±—ã–ª –æ—Ç–ø
 294:/home/arhat109/Arduino/libraries/Arhat/arhat_twi2.h ****                         *twiRX_Ptr = TWDR;
 295:/home/arhat109/Arduino/libraries/Arhat/arhat_twi2.h ****                     }
 296:/home/arhat109/Arduino/libraries/Arhat/arhat_twi2.h ****                     // SR: –û–±–Ω–∞—Ä—É–∂–µ–Ω stop –∏–ª–∏ restart –≤ –ø—Ä–æ—Ü–µ—Å—Å–µ –ø—Ä–∏–µ–º–∞ 
 297:/home/arhat109/Arduino/libraries/Arhat/arhat_twi2.h ****                     twiSlaveReader();                           // –•—É–∫ –æ–±—è–∑–∞—Ç–µ–ª–µ–Ω! —ç—
 298:/home/arhat109/Arduino/libraries/Arhat/arhat_twi2.h ****                     _md=twiMode;                                // –≤–æ–∑–º–æ–∂–Ω–æ –∏–∑–º–µ–Ω–µ–Ω–
 299:/home/arhat109/Arduino/libraries/Arhat/arhat_twi2.h ****                     twiSendStop(_md); return;
 300:/home/arhat109/Arduino/libraries/Arhat/arhat_twi2.h ****                 }else{
 301:/home/arhat109/Arduino/libraries/Arhat/arhat_twi2.h ****                     if( (_st == TWI_SR_GCALL_DATA_ACK) || (_st == TWI_SR_DATA_ACK) )
 302:/home/arhat109/Arduino/libraries/Arhat/arhat_twi2.h ****                     {
 303:/home/arhat109/Arduino/libraries/Arhat/arhat_twi2.h ****                         // SR: –ø—Ä–∏—à–µ–ª –±–∞–π—Ç –≤—Å–µ–º - –∞–Ω–∞–ª–æ–≥–∏—á–Ω–æ
 304:/home/arhat109/Arduino/libraries/Arhat/arhat_twi2.h ****                         // SR: –ø—Ä–∏—à–µ–ª –±–∞–π—Ç, –º–æ–∂–Ω–æ –µ—â—ë –ø—Ä–∏–Ω—è—Ç—å
 305:/home/arhat109/Arduino/libraries/Arhat/arhat_twi2.h ****                         *(twiRX_Ptr++) = TWDR;
 306:/home/arhat109/Arduino/libraries/Arhat/arhat_twi2.h ****                     }
 307:/home/arhat109/Arduino/libraries/Arhat/arhat_twi2.h ****                     // TWI_SR_ARB_LOST_SLA_ACK   SR: –ú–∞—Å—Ç–µ—Ä –ø–æ—Ç–µ—Ä—è–ª —à–∏–Ω—É: –Ω–µ—Ç –
 308:/home/arhat109/Arduino/libraries/Arhat/arhat_twi2.h ****                     // TWI_SR_ARB_LOST_GCALL_ACK SR: –í—ã–∑–æ–≤ –≤—Å–µ–º –ø–æ—Ç–µ—Ä—è–ª —à–∏–Ω—É (–
 309:/home/arhat109/Arduino/libraries/Arhat/arhat_twi2.h ****                     // TWI_SR_SLA_ACK            SR: –ê–¥—Ä–µ—Å –ø—Ä–∏–Ω—è—Ç, –µ—â—ë —Ç–æ–ª—å–∫–æ –
 310:/home/arhat109/Arduino/libraries/Arhat/arhat_twi2.h ****                     // TWI_SR_GCALL_ACK          SR: –í—ã–∑–æ–≤ –≤—Å–µ–º –ø—Ä–∏–Ω—è—Ç –æ–Ω–æ –∂–µ
 311:/home/arhat109/Arduino/libraries/Arhat/arhat_twi2.h ****                     _cr = twiReply(--twiRX_Count);              // .. –ø—Ä–∏–Ω—è–ª–∏ –±–∞–π—Ç –∏ –æ
 312:/home/arhat109/Arduino/libraries/Arhat/arhat_twi2.h ****                 }
 313:/home/arhat109/Arduino/libraries/Arhat/arhat_twi2.h **** #endif // TWI_ON::TWI_IS_SLAVE_RX
 314:/home/arhat109/Arduino/libraries/Arhat/arhat_twi2.h **** #if (TWI_ON & TWI_IS_SLAVE_TX)
 315:/home/arhat109/Arduino/libraries/Arhat/arhat_twi2.h ****             }
 316:/home/arhat109/Arduino/libraries/Arhat/arhat_twi2.h ****         }
 317:/home/arhat109/Arduino/libraries/Arhat/arhat_twi2.h **** #endif // TWI_ON::TWI_IS_SLAVE_TX
 318:/home/arhat109/Arduino/libraries/Arhat/arhat_twi2.h ****     }else{
 319:/home/arhat109/Arduino/libraries/Arhat/arhat_twi2.h **** 
 320:/home/arhat109/Arduino/libraries/Arhat/arhat_twi2.h **** #endif // TWI_ON::TWI_SLAVE..
 321:/home/arhat109/Arduino/libraries/Arhat/arhat_twi2.h **** #if defined(TWI_ON) && (TWI_ON & TWI_MASTER_TX)
 322:/home/arhat109/Arduino/libraries/Arhat/arhat_twi2.h ****         // Master Transmiter or Reciever modes
 323:/home/arhat109/Arduino/libraries/Arhat/arhat_twi2.h ****         if( (_st == TWI_START) || (_st == TWI_REP_START) )
 324:/home/arhat109/Arduino/libraries/Arhat/arhat_twi2.h ****         {
 325:/home/arhat109/Arduino/libraries/Arhat/arhat_twi2.h ****             // MT,MR:: –ü—Ä–æ—à–ª–∞ –æ—Ç–ø—Ä–∞–≤–∫–∞ —Å—Ç–∞—Ä—Ç–æ–≤–æ–π –ø–æ—Å—ã–ª–∫–∏
 326:/home/arhat109/Arduino/libraries/Arhat/arhat_twi2.h ****             // MT,MR:: –ü—Ä–æ—à–ª–∞ –æ—Ç–ø—Ä–∞–≤–∫–∞ –ø–æ–≤—Ç–æ—Ä–Ω–æ–≥–æ —Å—Ç–∞—Ä—Ç–∞
 327:/home/arhat109/Arduino/libraries/Arhat/arhat_twi2.h ****             TWDR = twiSLARW;
 328:/home/arhat109/Arduino/libraries/Arhat/arhat_twi2.h ****             _cr = twiReply(_md & TWI_IS_SLAVE);
 329:/home/arhat109/Arduino/libraries/Arhat/arhat_twi2.h ****         }else{
 330:/home/arhat109/Arduino/libraries/Arhat/arhat_twi2.h ****             if( (_st == TWI_MT_SLA_NACK) || (_st == TWI_MT_DATA_NACK) )
 331:/home/arhat109/Arduino/libraries/Arhat/arhat_twi2.h ****             {
 332:/home/arhat109/Arduino/libraries/Arhat/arhat_twi2.h ****                 // TWI_MT_DATA_NACK MT:: –£–ø—Å. data NACK: –ü–æ–ª—É—á–∞—Ç–µ–ª—å –Ω–µ —Ö–æ—Ç–∏—Ç?
 333:/home/arhat109/Arduino/libraries/Arhat/arhat_twi2.h ****                 // TWI_MT_SLA_NACK  MT:: –£–ø—Å. –ü–æ–ª—É—á–∞—Ç–µ–ª—å NACK .. –Ω–µ –æ—Ç–∫–ª–∏–∫–∞–µ
GAS LISTING /tmp/ccfXOBLh.s 			page 13


 334:/home/arhat109/Arduino/libraries/Arhat/arhat_twi2.h ****                 twiSendStop(_md); return;
 335:/home/arhat109/Arduino/libraries/Arhat/arhat_twi2.h ****             }
 336:/home/arhat109/Arduino/libraries/Arhat/arhat_twi2.h ****             if( (_st == TWI_MT_SLA_ACK)  || (_st == TWI_MT_DATA_ACK) )
 337:/home/arhat109/Arduino/libraries/Arhat/arhat_twi2.h ****             {
 338:/home/arhat109/Arduino/libraries/Arhat/arhat_twi2.h ****                 // MT: –ê–¥—Ä–µ—Å –ø–æ–ª—É—á–∞—Ç–µ–ª—è –æ—Ç–ø—Ä–∞–≤–ª–µ–Ω —É—Å–ø–µ—à–Ω–æ, –Ω–∞—á–∏–
 339:/home/arhat109/Arduino/libraries/Arhat/arhat_twi2.h ****                 // MT: –ë–∞–π—Ç –¥–∞–Ω–Ω—ã—Ö –æ—Ç–ø—Ä–∞–≤–ª–µ–Ω, –ø—Ä–æ–¥–æ–ª–∂–∞–µ–º
 340:/home/arhat109/Arduino/libraries/Arhat/arhat_twi2.h ****                 if( twiMT_Count-- ){
 341:/home/arhat109/Arduino/libraries/Arhat/arhat_twi2.h ****                     TWDR = *twiMT_Ptr++;
 342:/home/arhat109/Arduino/libraries/Arhat/arhat_twi2.h ****                     _cr = twiReply(_md & TWI_IS_SLAVE);
 343:/home/arhat109/Arduino/libraries/Arhat/arhat_twi2.h ****                 }else{
 344:/home/arhat109/Arduino/libraries/Arhat/arhat_twi2.h ****                     twiSendStop(_md); return;
 345:/home/arhat109/Arduino/libraries/Arhat/arhat_twi2.h ****                 }
 346:/home/arhat109/Arduino/libraries/Arhat/arhat_twi2.h ****             }else{
 347:/home/arhat109/Arduino/libraries/Arhat/arhat_twi2.h **** #endif // TWI_ON::TWI_MASTER_TX
 348:/home/arhat109/Arduino/libraries/Arhat/arhat_twi2.h **** #if defined(TWI_ON) && (TWI_ON & TWI_MASTER_RX)
 349:/home/arhat109/Arduino/libraries/Arhat/arhat_twi2.h ****                 if( _st == TWI_MTR_ARB_LOST )
 350:/home/arhat109/Arduino/libraries/Arhat/arhat_twi2.h ****                 {
 351:/home/arhat109/Arduino/libraries/Arhat/arhat_twi2.h ****                     // MT,MR: –£–ø—Å. –ú–∞—Å—Ç–µ—Ä –ø–æ—Ç–µ—Ä—è–ª —à–∏–Ω—É: –æ—Å–≤–æ–±–æ–∂–¥–∞–µ–º 
 352:/home/arhat109/Arduino/libraries/Arhat/arhat_twi2.h ****                     _md |= TWI_READY;
 353:/home/arhat109/Arduino/libraries/Arhat/arhat_twi2.h ****                     _cr = twiReleaseBus(_md & TWI_IS_SLAVE);
 354:/home/arhat109/Arduino/libraries/Arhat/arhat_twi2.h ****                 }else{
 355:/home/arhat109/Arduino/libraries/Arhat/arhat_twi2.h ****                     if( (_st == TWI_MR_DATA_ACK) || (_st == TWI_MR_SLA_ACK) )
 356:/home/arhat109/Arduino/libraries/Arhat/arhat_twi2.h ****                     {
 357:/home/arhat109/Arduino/libraries/Arhat/arhat_twi2.h ****                         if( _st == TWI_MR_DATA_ACK ){
 358:/home/arhat109/Arduino/libraries/Arhat/arhat_twi2.h ****                             // MR: –±–∞–π—Ç –ø—Ä–∏–Ω—è—Ç, ACK –æ—Ç–ø—Ä–∞–≤–ª–µ–Ω
 359:/home/arhat109/Arduino/libraries/Arhat/arhat_twi2.h ****                             *(twiRX_Ptr++) = TWDR;
 360:/home/arhat109/Arduino/libraries/Arhat/arhat_twi2.h ****                         }
 361:/home/arhat109/Arduino/libraries/Arhat/arhat_twi2.h ****                         // MR: –û—Ç–ø—Ä–∞–≤–∏—Ç–µ–ª—å –Ω–∞–π–¥–µ–Ω, –Ω–∞—á–∏–Ω–∞–µ–º –ø—Ä–∏–µ–º
 362:/home/arhat109/Arduino/libraries/Arhat/arhat_twi2.h ****                         _cr = twiReply( --twiRX_Count );        // .. –ú–æ–∂–Ω–æ –µ—â—ë –ø—Ä–∏–Ω—è—
 363:/home/arhat109/Arduino/libraries/Arhat/arhat_twi2.h ****                     }else{
 364:/home/arhat109/Arduino/libraries/Arhat/arhat_twi2.h ****                         if( _st == TWI_ERROR ) return;
 365:/home/arhat109/Arduino/libraries/Arhat/arhat_twi2.h ****                         if( _st == TWI_MR_DATA_NACK )
 366:/home/arhat109/Arduino/libraries/Arhat/arhat_twi2.h ****                         {
 367:/home/arhat109/Arduino/libraries/Arhat/arhat_twi2.h ****                             // MR: –£–ø—Å. –ü–æ–ª—É—á–µ–Ω –ø–æ—Å–ª–µ–¥–Ω–∏–π –±–∞–π—Ç –¥–∞–ª—å—à–µ 
 368:/home/arhat109/Arduino/libraries/Arhat/arhat_twi2.h ****                             *twiRX_Ptr = TWDR;
 369:/home/arhat109/Arduino/libraries/Arhat/arhat_twi2.h ****                             if( twiMasterReader ) twiMasterReader();
 370:/home/arhat109/Arduino/libraries/Arhat/arhat_twi2.h **** //                            goto TWI_RET_HOOK;
 371:/home/arhat109/Arduino/libraries/Arhat/arhat_twi2.h ****                             _md=twiMode;                        // –≤–æ–∑–º–æ–∂–Ω–æ –∏–∑–º–µ–Ω–µ–Ω–
 372:/home/arhat109/Arduino/libraries/Arhat/arhat_twi2.h ****                         }
 373:/home/arhat109/Arduino/libraries/Arhat/arhat_twi2.h ****                         // All other Master states: stop/restart if need
 374:/home/arhat109/Arduino/libraries/Arhat/arhat_twi2.h ****                         // TWI_MR_SLA_NACK  MR:: –£–ø—Å. –û—Ç–ø—Ä–∞–≤–∏—Ç–µ–ª—å NACK .. –Ω–µ –æ—Ç–∫
 375:/home/arhat109/Arduino/libraries/Arhat/arhat_twi2.h ****                         twiSendStop(_md); return;
 376:/home/arhat109/Arduino/libraries/Arhat/arhat_twi2.h ****                     }
 377:/home/arhat109/Arduino/libraries/Arhat/arhat_twi2.h ****                 }
 378:/home/arhat109/Arduino/libraries/Arhat/arhat_twi2.h **** #endif // TWI_ON::TWI_MASTER_RX
 379:/home/arhat109/Arduino/libraries/Arhat/arhat_twi2.h **** #if defined(TWI_ON) && (TWI_ON&TWI_MASTER_TX)
 380:/home/arhat109/Arduino/libraries/Arhat/arhat_twi2.h ****             }
 381:/home/arhat109/Arduino/libraries/Arhat/arhat_twi2.h ****         }
 382:/home/arhat109/Arduino/libraries/Arhat/arhat_twi2.h **** #endif // TWI_ON::TWI_MASTER_TX
 383:/home/arhat109/Arduino/libraries/Arhat/arhat_twi2.h **** #if defined(TWI_ON) && ((TWI_ON & TWI_IS_SLAVE_TX)||(TWI_ON & TWI_IS_SLAVE_RX))
 384:/home/arhat109/Arduino/libraries/Arhat/arhat_twi2.h ****     }
 385:/home/arhat109/Arduino/libraries/Arhat/arhat_twi2.h **** #endif // TWI_SLAVE_ON
 386:/home/arhat109/Arduino/libraries/Arhat/arhat_twi2.h ****     twiMode = _md;
 352               		.loc 1 386 0
 353 008e 3093 0000 		sts twiMode,r19
 387:/home/arhat109/Arduino/libraries/Arhat/arhat_twi2.h ****     TWCR = _cr;
 354               		.loc 1 387 0
GAS LISTING /tmp/ccfXOBLh.s 			page 14


 355 0092 2093 BC00 		sts 188,r18
 356               	.LVL26:
 357               	.L21:
 358               	/* epilogue start */
 359               	.LBE3:
 388:/home/arhat109/Arduino/libraries/Arhat/arhat_twi2.h **** } //end ISR()
 360               		.loc 1 388 0
 361 0096 FF91      		pop r31
 362 0098 EF91      		pop r30
 363 009a BF91      		pop r27
 364 009c AF91      		pop r26
 365 009e 9F91      		pop r25
 366 00a0 8F91      		pop r24
 367 00a2 7F91      		pop r23
 368 00a4 6F91      		pop r22
 369 00a6 5F91      		pop r21
 370 00a8 4F91      		pop r20
 371 00aa 3F91      		pop r19
 372 00ac 2F91      		pop r18
 373 00ae 0F90      		pop r0
 374 00b0 0BBE      		out __RAMPZ__,r0
 375 00b2 0F90      		pop r0
 376 00b4 0FBE      		out __SREG__,r0
 377 00b6 0F90      		pop r0
 378 00b8 1F90      		pop r1
 379 00ba 1895      		reti
 380               		.cfi_endproc
 381               	.LFE105:
 382               		.size	__vector_39, .-__vector_39
 383               		.section	.text._twiStartTo,"ax",@progbits
 384               	.global	_twiStartTo
 385               		.type	_twiStartTo, @function
 386               	_twiStartTo:
 387               	.LFB106:
 389:/home/arhat109/Arduino/libraries/Arhat/arhat_twi2.h **** 
 390:/home/arhat109/Arduino/libraries/Arhat/arhat_twi2.h **** // -------------------------              (PROTECTED)             ------------------------- //
 391:/home/arhat109/Arduino/libraries/Arhat/arhat_twi2.h **** // –í–Ω—É—Ç—Ä–µ–Ω–Ω–∏–µ –º–µ—Ç–æ–¥—ã –∏–Ω—Ç–µ—Ä—Ñ–µ–π—Å–∞, –º–æ–≥—É—Ç –ø—Ä–∏–≥–æ–¥–∏—Ç—Å—è –¥–ª—è —
 392:/home/arhat109/Arduino/libraries/Arhat/arhat_twi2.h **** // ---------------------------------------------------------------------------------------- //
 393:/home/arhat109/Arduino/libraries/Arhat/arhat_twi2.h **** 
 394:/home/arhat109/Arduino/libraries/Arhat/arhat_twi2.h **** /**
 395:/home/arhat109/Arduino/libraries/Arhat/arhat_twi2.h ****  * INTERNAL:: –ü—Ä–æ—Å—Ç–∞—è –ø–µ—Ä–µ–¥–∞—á–∞. –ó–∞–ø–∏—Å—å –∞–¥—Ä–µ—Å–∞ —Å–æ–±–µ—Å–µ–¥–Ω–∏–∫–∞ –∏ 
 396:/home/arhat109/Arduino/libraries/Arhat/arhat_twi2.h ****  *
 397:/home/arhat109/Arduino/libraries/Arhat/arhat_twi2.h ****  * @see twiWrite(), twiRead()
 398:/home/arhat109/Arduino/libraries/Arhat/arhat_twi2.h ****  */
 399:/home/arhat109/Arduino/libraries/Arhat/arhat_twi2.h **** void _twiStartTo(uint8_t address)
 400:/home/arhat109/Arduino/libraries/Arhat/arhat_twi2.h **** {
 388               		.loc 1 400 0
 389               		.cfi_startproc
 390               	.LVL27:
 391               	/* prologue: function */
 392               	/* frame size = 0 */
 393               	/* stack size = 0 */
 394               	.L__stack_usage = 0
 401:/home/arhat109/Arduino/libraries/Arhat/arhat_twi2.h ****     twiSLARW = address;                                 // –†–µ–∂–∏–º –ø–æ—Å—Ç–∞–≤–ª—è–µ—Ç—Å—è –≤–º
 395               		.loc 1 401 0
 396 0000 8093 0000 		sts twiSLARW,r24
 402:/home/arhat109/Arduino/libraries/Arhat/arhat_twi2.h ****     twiMode |= TWI_SEND_STOP;                           // —Ç–æ–ª—å–∫–æ 1 –±–∏—Ç! –ú–æ–≥–ª–∏ –±—ã—Ç
GAS LISTING /tmp/ccfXOBLh.s 			page 15


 397               		.loc 1 402 0
 398 0004 8091 0000 		lds r24,twiMode
 399               	.LVL28:
 400 0008 8260      		ori r24,lo8(2)
 401 000a 8093 0000 		sts twiMode,r24
 402               	.LVL29:
 403:/home/arhat109/Arduino/libraries/Arhat/arhat_twi2.h ****     TWCR = twiStart(twiMode & TWI_IS_SLAVE);
 403               		.loc 1 403 0
 404 000e 8091 0000 		lds r24,twiMode
 405 0012 80FF      		sbrs r24,0
 406 0014 00C0      		rjmp .L32
 407 0016 85EE      		ldi r24,lo8(-27)
 408 0018 00C0      		rjmp .L31
 409               	.L32:
 410 001a 85EA      		ldi r24,lo8(-91)
 411               	.L31:
 412               		.loc 1 403 0 is_stmt 0 discriminator 3
 413 001c 8093 BC00 		sts 188,r24
 414 0020 0895      		ret
 415               		.cfi_endproc
 416               	.LFE106:
 417               		.size	_twiStartTo, .-_twiStartTo
 418               		.section	.text._twiStartRe,"ax",@progbits
 419               	.global	_twiStartRe
 420               		.type	_twiStartRe, @function
 421               	_twiStartRe:
 422               	.LFB107:
 404:/home/arhat109/Arduino/libraries/Arhat/arhat_twi2.h **** }
 405:/home/arhat109/Arduino/libraries/Arhat/arhat_twi2.h **** 
 406:/home/arhat109/Arduino/libraries/Arhat/arhat_twi2.h **** /**
 407:/home/arhat109/Arduino/libraries/Arhat/arhat_twi2.h ****  * INTERNAL:: –ü–µ—Ä–µ–¥–∞—á–∞ —Å —Ä–µ—Å—Ç–∞—Ä—Ç–æ–º. –ó–∞–ø–∏—Å—å –∞–¥—Ä–µ—Å–∞ —Å–æ–±–µ—Å–µ–¥–Ω–∏–
 408:/home/arhat109/Arduino/libraries/Arhat/arhat_twi2.h ****  *
 409:/home/arhat109/Arduino/libraries/Arhat/arhat_twi2.h ****  * @see twiWrite(), twiRead()
 410:/home/arhat109/Arduino/libraries/Arhat/arhat_twi2.h ****  */
 411:/home/arhat109/Arduino/libraries/Arhat/arhat_twi2.h **** void _twiStartRe(uint8_t address)
 412:/home/arhat109/Arduino/libraries/Arhat/arhat_twi2.h **** {
 423               		.loc 1 412 0 is_stmt 1
 424               		.cfi_startproc
 425               	.LVL30:
 426               	/* prologue: function */
 427               	/* frame size = 0 */
 428               	/* stack size = 0 */
 429               	.L__stack_usage = 0
 413:/home/arhat109/Arduino/libraries/Arhat/arhat_twi2.h ****     twiSLARW = address;                                 // –†–µ–∂–∏–º –ø–æ—Å—Ç–∞–≤–ª—è–µ—Ç—Å—è –≤–º
 430               		.loc 1 413 0
 431 0000 8093 0000 		sts twiSLARW,r24
 414:/home/arhat109/Arduino/libraries/Arhat/arhat_twi2.h ****     twiMode &= ~TWI_SEND_STOP;                          // —Ç–æ–ª—å–∫–æ 1 –±–∏—Ç! –ú–æ–≥–ª–∏ –±—ã—Ç
 432               		.loc 1 414 0
 433 0004 8091 0000 		lds r24,twiMode
 434               	.LVL31:
 435 0008 8D7F      		andi r24,lo8(-3)
 436 000a 8093 0000 		sts twiMode,r24
 437               	.LVL32:
 415:/home/arhat109/Arduino/libraries/Arhat/arhat_twi2.h ****     TWCR = twiStart(twiMode & TWI_IS_SLAVE);
 438               		.loc 1 415 0
 439 000e 8091 0000 		lds r24,twiMode
 440 0012 80FF      		sbrs r24,0
GAS LISTING /tmp/ccfXOBLh.s 			page 16


 441 0014 00C0      		rjmp .L35
 442 0016 85EE      		ldi r24,lo8(-27)
 443 0018 00C0      		rjmp .L34
 444               	.L35:
 445 001a 85EA      		ldi r24,lo8(-91)
 446               	.L34:
 447               		.loc 1 415 0 is_stmt 0 discriminator 3
 448 001c 8093 BC00 		sts 188,r24
 449 0020 0895      		ret
 450               		.cfi_endproc
 451               	.LFE107:
 452               		.size	_twiStartRe, .-_twiStartRe
 453               		.section	.text.twiWrite,"ax",@progbits
 454               	.global	twiWrite
 455               		.type	twiWrite, @function
 456               	twiWrite:
 457               	.LFB108:
 416:/home/arhat109/Arduino/libraries/Arhat/arhat_twi2.h **** }
 417:/home/arhat109/Arduino/libraries/Arhat/arhat_twi2.h **** 
 418:/home/arhat109/Arduino/libraries/Arhat/arhat_twi2.h **** #define _twiWaitReady()             {while(!(TWI_READY & twiMode)); twiMode &= ~TWI_READY;}
 419:/home/arhat109/Arduino/libraries/Arhat/arhat_twi2.h **** #define _twiMT_Buffer(data, length) (twiMT_Ptr=(volatile uint8_t *)(data), twiMT_Count=(volatile ui
 420:/home/arhat109/Arduino/libraries/Arhat/arhat_twi2.h **** #define _twiRX_Buffer(data, length) (twiRX_Ptr=(volatile uint8_t *)(data), twiRX_Count=(volatile ui
 421:/home/arhat109/Arduino/libraries/Arhat/arhat_twi2.h **** #define _twiST_Buffer(data, length) (twiST_Ptr=(volatile uint8_t *)(data), twiST_Count=(volatile ui
 422:/home/arhat109/Arduino/libraries/Arhat/arhat_twi2.h **** 
 423:/home/arhat109/Arduino/libraries/Arhat/arhat_twi2.h **** // -------------------------                PUBLIC                ------------------------- //
 424:/home/arhat109/Arduino/libraries/Arhat/arhat_twi2.h **** // ---------------------------------------------------------------------------------------- //
 425:/home/arhat109/Arduino/libraries/Arhat/arhat_twi2.h **** 
 426:/home/arhat109/Arduino/libraries/Arhat/arhat_twi2.h **** /**
 427:/home/arhat109/Arduino/libraries/Arhat/arhat_twi2.h ****  * Master-TX:: –ü–µ—Ä–µ–¥–∞—á–∞ length –±–∞–π—Ç –ø–æ –∞–¥—Ä–µ—Å—É –ø–æ–ª—É—á–∞—Ç–µ–ª—è. –¢–æ–ª—å–∫–
 428:/home/arhat109/Arduino/libraries/Arhat/arhat_twi2.h ****  */
 429:/home/arhat109/Arduino/libraries/Arhat/arhat_twi2.h **** void twiWrite(uint8_t address, const uint8_t * data, uint8_t length)
 430:/home/arhat109/Arduino/libraries/Arhat/arhat_twi2.h **** {
 458               		.loc 1 430 0 is_stmt 1
 459               		.cfi_startproc
 460               	/* prologue: function */
 461               	/* frame size = 0 */
 462               	/* stack size = 0 */
 463               	.L__stack_usage = 0
 464               	.LVL33:
 465               	.L38:
 431:/home/arhat109/Arduino/libraries/Arhat/arhat_twi2.h ****     _twiWaitReady();                                    // –ñ–¥–µ–º –∑–∞–≤–µ—Ä—à–µ–Ω–∏—è –ø—Ä–µ–¥—ã
 466               		.loc 1 431 0 discriminator 1
 467 0000 9091 0000 		lds r25,twiMode
 468 0004 92FF      		sbrs r25,2
 469 0006 00C0      		rjmp .L38
 470               		.loc 1 431 0 is_stmt 0 discriminator 2
 471 0008 9091 0000 		lds r25,twiMode
 472 000c 9B7F      		andi r25,lo8(-5)
 473 000e 9093 0000 		sts twiMode,r25
 432:/home/arhat109/Arduino/libraries/Arhat/arhat_twi2.h ****     _twiMT_Buffer(data, length);
 474               		.loc 1 432 0 is_stmt 1 discriminator 2
 475 0012 7093 0000 		sts twiMT_Ptr+1,r23
 476 0016 6093 0000 		sts twiMT_Ptr,r22
 477 001a 4093 0000 		sts twiMT_Count,r20
 433:/home/arhat109/Arduino/libraries/Arhat/arhat_twi2.h ****     _twiStartTo( (address<<1) | TWI_WRITE );            // –†–µ–∂–∏–º –ø–µ—Ä–µ–¥–∞—á–∏!
 478               		.loc 1 433 0 discriminator 2
 479 001e 880F      		lsl r24
GAS LISTING /tmp/ccfXOBLh.s 			page 17


 480               	.LVL34:
 481 0020 0C94 0000 		jmp _twiStartTo
 482               	.LVL35:
 483               		.cfi_endproc
 484               	.LFE108:
 485               		.size	twiWrite, .-twiWrite
 486               		.section	.text.twiRead,"ax",@progbits
 487               	.global	twiRead
 488               		.type	twiRead, @function
 489               	twiRead:
 490               	.LFB109:
 434:/home/arhat109/Arduino/libraries/Arhat/arhat_twi2.h **** }
 435:/home/arhat109/Arduino/libraries/Arhat/arhat_twi2.h **** 
 436:/home/arhat109/Arduino/libraries/Arhat/arhat_twi2.h **** /**
 437:/home/arhat109/Arduino/libraries/Arhat/arhat_twi2.h ****  * MASTER-RX:: –ü—Ä–∏–µ–º length –±–∞–π—Ç –∏–∑ –∞–¥—Ä–µ—Å–∞ –æ—Ç–ø—Ä–∞–≤–∏—Ç–µ–ª—è. –¢–æ–ª—å–∫–æ –∑
 438:/home/arhat109/Arduino/libraries/Arhat/arhat_twi2.h ****  */
 439:/home/arhat109/Arduino/libraries/Arhat/arhat_twi2.h **** void twiRead(uint8_t address, uint8_t * data, uint8_t length)
 440:/home/arhat109/Arduino/libraries/Arhat/arhat_twi2.h **** {
 491               		.loc 1 440 0
 492               		.cfi_startproc
 493               	/* prologue: function */
 494               	/* frame size = 0 */
 495               	/* stack size = 0 */
 496               	.L__stack_usage = 0
 497               	.LVL36:
 498               	.L41:
 441:/home/arhat109/Arduino/libraries/Arhat/arhat_twi2.h ****     _twiWaitReady();                                    // –ñ–¥–µ–º –∑–∞–≤–µ—Ä—à–µ–Ω–∏—è –ø—Ä–µ–¥—ã
 499               		.loc 1 441 0 discriminator 1
 500 0000 9091 0000 		lds r25,twiMode
 501 0004 92FF      		sbrs r25,2
 502 0006 00C0      		rjmp .L41
 503               		.loc 1 441 0 is_stmt 0 discriminator 2
 504 0008 9091 0000 		lds r25,twiMode
 505 000c 9B7F      		andi r25,lo8(-5)
 506 000e 9093 0000 		sts twiMode,r25
 442:/home/arhat109/Arduino/libraries/Arhat/arhat_twi2.h ****     _twiRX_Buffer(data, length);
 507               		.loc 1 442 0 is_stmt 1 discriminator 2
 508 0012 7093 0000 		sts twiRX_Ptr+1,r23
 509 0016 6093 0000 		sts twiRX_Ptr,r22
 510 001a 4093 0000 		sts twiRX_Count,r20
 443:/home/arhat109/Arduino/libraries/Arhat/arhat_twi2.h ****     _twiStartTo( (address<<1) | TWI_READ );             // –†–µ–∂–∏–º –ø—Ä–∏–µ–º–∞ –¥–∞–Ω–Ω—ã—Ö!
 511               		.loc 1 443 0 discriminator 2
 512 001e 880F      		lsl r24
 513               	.LVL37:
 514 0020 8160      		ori r24,lo8(1)
 515 0022 0C94 0000 		jmp _twiStartTo
 516               	.LVL38:
 517               		.cfi_endproc
 518               	.LFE109:
 519               		.size	twiRead, .-twiRead
 520               		.section	.text.twiRAW,"ax",@progbits
 521               	.global	twiRAW
 522               		.type	twiRAW, @function
 523               	twiRAW:
 524               	.LFB110:
 444:/home/arhat109/Arduino/libraries/Arhat/arhat_twi2.h **** }
 445:/home/arhat109/Arduino/libraries/Arhat/arhat_twi2.h **** 
GAS LISTING /tmp/ccfXOBLh.s 			page 18


 446:/home/arhat109/Arduino/libraries/Arhat/arhat_twi2.h **** /**
 447:/home/arhat109/Arduino/libraries/Arhat/arhat_twi2.h ****  * Master Read-after-Write:: –ß—Ç–µ–Ω–∏–µ –¥–∞–Ω–Ω—ã—Ö –ø–æ—Å–ª–µ –æ—Ç–ø—Ä–∞–≤–∫–∏ –∫–æ–º–∞–Ω–¥—ã. 
 448:/home/arhat109/Arduino/libraries/Arhat/arhat_twi2.h ****  * !!! –ù–µ —Å–æ–≤–º–µ—Å—Ç–∏–º–æ —Å Slave Receive Mode - –±—É—Ñ–µ—Ä –ø—Ä–∏–µ–º–∞ –æ–±—â–∏–π !!!
 449:/home/arhat109/Arduino/libraries/Arhat/arhat_twi2.h ****  */
 450:/home/arhat109/Arduino/libraries/Arhat/arhat_twi2.h **** void twiRAW(uint8_t address                             // –∞–¥—Ä–µ—Å —É—Å—Ç—Ä–æ–π—Å—Ç–≤–∞
 451:/home/arhat109/Arduino/libraries/Arhat/arhat_twi2.h **** , uint8_t* command, uint8_t clength                     // –∫–æ–º–∞–Ω–¥–∞ –∏ –µ—ë –¥–ª–∏–Ω–∞
 452:/home/arhat109/Arduino/libraries/Arhat/arhat_twi2.h **** , uint8_t* data, uint8_t dlength                        // –±—É—Ñ–µ—Ä –ø—Ä–∏–µ–º–∞ –¥–∞–Ω–Ω—ã—Ö –∏ 
 453:/home/arhat109/Arduino/libraries/Arhat/arhat_twi2.h **** ){
 525               		.loc 1 453 0
 526               		.cfi_startproc
 527               	.LVL39:
 528 0000 0F93      		push r16
 529               	.LCFI19:
 530               		.cfi_def_cfa_offset 4
 531               		.cfi_offset 16, -3
 532               	/* prologue: function */
 533               	/* frame size = 0 */
 534               	/* stack size = 1 */
 535               	.L__stack_usage = 1
 536               	.L44:
 454:/home/arhat109/Arduino/libraries/Arhat/arhat_twi2.h ****     _twiWaitReady();                                    // –ñ–¥–µ–º –∑–∞–≤–µ—Ä—à–µ–Ω–∏—è –ø—Ä–µ–¥—ã
 537               		.loc 1 454 0 discriminator 1
 538 0002 9091 0000 		lds r25,twiMode
 539 0006 92FF      		sbrs r25,2
 540 0008 00C0      		rjmp .L44
 541               		.loc 1 454 0 is_stmt 0 discriminator 2
 542 000a 9091 0000 		lds r25,twiMode
 543 000e 9B7F      		andi r25,lo8(-5)
 544 0010 9093 0000 		sts twiMode,r25
 455:/home/arhat109/Arduino/libraries/Arhat/arhat_twi2.h ****     _twiMT_Buffer(command, clength);
 545               		.loc 1 455 0 is_stmt 1 discriminator 2
 546 0014 7093 0000 		sts twiMT_Ptr+1,r23
 547 0018 6093 0000 		sts twiMT_Ptr,r22
 548 001c 4093 0000 		sts twiMT_Count,r20
 456:/home/arhat109/Arduino/libraries/Arhat/arhat_twi2.h ****     _twiRX_Buffer(data, dlength);
 549               		.loc 1 456 0 discriminator 2
 550 0020 3093 0000 		sts twiRX_Ptr+1,r19
 551 0024 2093 0000 		sts twiRX_Ptr,r18
 552 0028 0093 0000 		sts twiRX_Count,r16
 457:/home/arhat109/Arduino/libraries/Arhat/arhat_twi2.h **** 
 458:/home/arhat109/Arduino/libraries/Arhat/arhat_twi2.h ****     twiHookRestart = 0;                                 // —Ç–∏–ø–æ–≤–æ–π –ø–µ—Ä–µ—Ö–æ–¥ –Ω–∞ —á—Ç–
 553               		.loc 1 458 0 discriminator 2
 554 002c 1092 0000 		sts twiHookRestart+1,__zero_reg__
 555 0030 1092 0000 		sts twiHookRestart,__zero_reg__
 459:/home/arhat109/Arduino/libraries/Arhat/arhat_twi2.h ****     twiMode &= ~TWI_SEND_STOP;                          // —Ä–µ—Å—Ç–∞—Ä—Ç –ø–æ—Å–ª–µ –æ—Ç–ø—Ä–∞–≤–∫
 556               		.loc 1 459 0 discriminator 2
 557 0034 9091 0000 		lds r25,twiMode
 558 0038 9D7F      		andi r25,lo8(-3)
 559 003a 9093 0000 		sts twiMode,r25
 460:/home/arhat109/Arduino/libraries/Arhat/arhat_twi2.h ****     twiSLARW = (address<<1 | TWI_WRITE);                // –°–Ω–∞—á–∞–ª–∞ —Ä–µ–∂–∏–º –ø–µ—Ä–µ–¥–∞—á
 560               		.loc 1 460 0 discriminator 2
 561 003e 880F      		lsl r24
 562               	.LVL40:
 563 0040 8093 0000 		sts twiSLARW,r24
 461:/home/arhat109/Arduino/libraries/Arhat/arhat_twi2.h ****     TWCR = twiStart(twiMode & TWI_IS_SLAVE);
 564               		.loc 1 461 0 discriminator 2
 565 0044 8091 0000 		lds r24,twiMode
GAS LISTING /tmp/ccfXOBLh.s 			page 19


 566 0048 80FF      		sbrs r24,0
 567 004a 00C0      		rjmp .L46
 568               		.loc 1 461 0 is_stmt 0
 569 004c 85EE      		ldi r24,lo8(-27)
 570 004e 00C0      		rjmp .L45
 571               	.L46:
 572 0050 85EA      		ldi r24,lo8(-91)
 573               	.L45:
 574               		.loc 1 461 0 discriminator 3
 575 0052 8093 BC00 		sts 188,r24
 576               	/* epilogue start */
 462:/home/arhat109/Arduino/libraries/Arhat/arhat_twi2.h **** }
 577               		.loc 1 462 0 is_stmt 1 discriminator 3
 578 0056 0F91      		pop r16
 579               	.LVL41:
 580 0058 0895      		ret
 581               		.cfi_endproc
 582               	.LFE110:
 583               		.size	twiRAW, .-twiRAW
 584               		.section	.text.lcdPrepare,"ax",@progbits
 585               	.global	lcdPrepare
 586               		.type	lcdPrepare, @function
 587               	lcdPrepare:
 588               	.LFB111:
 589               		.file 2 "LCD1602ex.ino"
   1:LCD1602ex.ino **** 
 590               		.loc 2 490 0
 591               		.cfi_startproc
 592               	.LVL42:
 593               	/* prologue: function */
 594               	/* frame size = 0 */
 595               	/* stack size = 0 */
 596               	.L__stack_usage = 0
 597               	.LBB4:
 598               		.loc 2 491 0
 599 0000 2091 0000 		lds r18,lcdBackLight
 600 0004 982F      		mov r25,r24
 601 0006 907F      		andi r25,lo8(-16)
 602 0008 922B      		or r25,r18
 603               	.LVL43:
 604               		.loc 2 493 0
 605 000a 6111      		cpse r22,__zero_reg__
 606               		.loc 2 493 0 is_stmt 0 discriminator 1
 607 000c 9160      		ori r25,lo8(1)
 608               	.LVL44:
 609               	.L48:
 610               		.loc 2 494 0 is_stmt 1
 611 000e 9093 0000 		sts lcdBuffer,r25
 612 0012 9093 0000 		sts lcdBuffer+2,r25
 613               	.LVL45:
 614               		.loc 2 495 0
 615 0016 9460      		ori r25,lo8(4)
 616               	.LVL46:
 617               		.loc 2 496 0
 618 0018 9093 0000 		sts lcdBuffer+1,r25
 619               		.loc 2 498 0
 620 001c 30E1      		ldi r19,lo8(16)
GAS LISTING /tmp/ccfXOBLh.s 			page 20


 621 001e 839F      		mul r24,r19
 622 0020 C001      		movw r24,r0
 623 0022 1124      		clr __zero_reg__
 624               	.LVL47:
 625 0024 822B      		or r24,r18
 626               	.LVL48:
 627               		.loc 2 500 0
 628 0026 6111      		cpse r22,__zero_reg__
 629               		.loc 2 500 0 is_stmt 0 discriminator 1
 630 0028 8160      		ori r24,lo8(1)
 631               	.LVL49:
 632               	.L49:
 633               		.loc 2 501 0 is_stmt 1
 634 002a 8093 0000 		sts lcdBuffer+3,r24
 635 002e 8093 0000 		sts lcdBuffer+5,r24
 636               	.LVL50:
 637               		.loc 2 502 0
 638 0032 8460      		ori r24,lo8(4)
 639               	.LVL51:
 640               		.loc 2 503 0
 641 0034 8093 0000 		sts lcdBuffer+4,r24
 642 0038 0895      		ret
 643               	.LBE4:
 644               		.cfi_endproc
 645               	.LFE111:
 646               		.size	lcdPrepare, .-lcdPrepare
 647               		.section	.text.lcdWrite,"ax",@progbits
 648               	.global	lcdWrite
 649               		.type	lcdWrite, @function
 650               	lcdWrite:
 651               	.LFB112:
 652               		.loc 2 511 0
 653               		.cfi_startproc
 654               	.LVL52:
 655 0000 1F93      		push r17
 656               	.LCFI20:
 657               		.cfi_def_cfa_offset 4
 658               		.cfi_offset 17, -3
 659 0002 CF93      		push r28
 660               	.LCFI21:
 661               		.cfi_def_cfa_offset 5
 662               		.cfi_offset 28, -4
 663 0004 DF93      		push r29
 664               	.LCFI22:
 665               		.cfi_def_cfa_offset 6
 666               		.cfi_offset 29, -5
 667               	/* prologue: function */
 668               	/* frame size = 0 */
 669               	/* stack size = 3 */
 670               	.L__stack_usage = 3
 671 0006 162F      		mov r17,r22
 672               	.LVL53:
 673               	.LBB5:
 674               		.loc 2 515 0
 675 0008 2091 0000 		lds r18,twiMode
 676 000c 2260      		ori r18,lo8(2)
 677 000e 2093 0000 		sts twiMode,r18
GAS LISTING /tmp/ccfXOBLh.s 			page 21


 678               		.loc 2 516 0
 679 0012 C82F      		mov r28,r24
 680 0014 D92F      		mov r29,r25
 681 0016 180F      		add r17,r24
 682               	.LVL54:
 683               	.L57:
 684               		.loc 2 516 0 is_stmt 0 discriminator 1
 685 0018 1C17      		cp r17,r28
 686 001a 01F0      		breq .L59
 687               	.LVL55:
 688               		.loc 2 517 0 is_stmt 1
 689 001c 61E0      		ldi r22,lo8(1)
 690 001e 8991      		ld r24,Y+
 691               	.LVL56:
 692 0020 0E94 0000 		call lcdPrepare
 693               	.LVL57:
 694 0024 46E0      		ldi r20,lo8(6)
 695 0026 60E0      		ldi r22,lo8(lcdBuffer)
 696 0028 70E0      		ldi r23,hi8(lcdBuffer)
 697 002a 8091 0000 		lds r24,lcdAddress
 698 002e 0E94 0000 		call twiWrite
 699               	.LVL58:
 700 0032 85E0      		ldi r24,lo8(5)
 701 0034 90E0      		ldi r25,0
 702 0036 0E94 0000 		call time_delay16
 703               	.LVL59:
 704 003a 00C0      		rjmp .L57
 705               	.LVL60:
 706               	.L59:
 707               	/* epilogue start */
 708               	.LBE5:
 709               		.loc 2 518 0
 710 003c DF91      		pop r29
 711 003e CF91      		pop r28
 712               	.LVL61:
 713 0040 1F91      		pop r17
 714 0042 0895      		ret
 715               		.cfi_endproc
 716               	.LFE112:
 717               		.size	lcdWrite, .-lcdWrite
 718               		.section	.text.lcdInit,"ax",@progbits
 719               	.global	lcdInit
 720               		.type	lcdInit, @function
 721               	lcdInit:
 722               	.LFB113:
 723               		.loc 2 524 0
 724               		.cfi_startproc
 725               	/* prologue: function */
 726               	/* frame size = 0 */
 727               	/* stack size = 0 */
 728               	.L__stack_usage = 0
 729               		.loc 2 525 0
 730 0000 60E0      		ldi r22,0
 731 0002 8091 0000 		lds r24,lcdModes
 732 0006 0E94 0000 		call lcdPrepare
 733               	.LVL62:
 734 000a 46E0      		ldi r20,lo8(6)
GAS LISTING /tmp/ccfXOBLh.s 			page 22


 735 000c 60E0      		ldi r22,lo8(lcdBuffer)
 736 000e 70E0      		ldi r23,hi8(lcdBuffer)
 737 0010 8091 0000 		lds r24,lcdAddress
 738 0014 0E94 0000 		call twiWrite
 739               	.LVL63:
 740 0018 85E0      		ldi r24,lo8(5)
 741 001a 90E0      		ldi r25,0
 742 001c 0E94 0000 		call time_delay16
 743               	.LVL64:
 744               		.loc 2 526 0
 745 0020 60E0      		ldi r22,0
 746 0022 8091 0000 		lds r24,lcdShows
 747 0026 0E94 0000 		call lcdPrepare
 748               	.LVL65:
 749 002a 46E0      		ldi r20,lo8(6)
 750 002c 60E0      		ldi r22,lo8(lcdBuffer)
 751 002e 70E0      		ldi r23,hi8(lcdBuffer)
 752 0030 8091 0000 		lds r24,lcdAddress
 753 0034 0E94 0000 		call twiWrite
 754               	.LVL66:
 755 0038 85E0      		ldi r24,lo8(5)
 756 003a 90E0      		ldi r25,0
 757 003c 0E94 0000 		call time_delay16
 758               	.LVL67:
 759               		.loc 2 527 0
 760 0040 60E0      		ldi r22,0
 761 0042 8091 0000 		lds r24,lcdShifts
 762 0046 0E94 0000 		call lcdPrepare
 763               	.LVL68:
 764 004a 46E0      		ldi r20,lo8(6)
 765 004c 60E0      		ldi r22,lo8(lcdBuffer)
 766 004e 70E0      		ldi r23,hi8(lcdBuffer)
 767 0050 8091 0000 		lds r24,lcdAddress
 768 0054 0E94 0000 		call twiWrite
 769               	.LVL69:
 770 0058 85E0      		ldi r24,lo8(5)
 771 005a 90E0      		ldi r25,0
 772 005c 0E94 0000 		call time_delay16
 773               	.LVL70:
 774               		.loc 2 528 0
 775 0060 60E0      		ldi r22,0
 776 0062 81E0      		ldi r24,lo8(1)
 777 0064 0E94 0000 		call lcdPrepare
 778               	.LVL71:
 779 0068 46E0      		ldi r20,lo8(6)
 780 006a 60E0      		ldi r22,lo8(lcdBuffer)
 781 006c 70E0      		ldi r23,hi8(lcdBuffer)
 782 006e 8091 0000 		lds r24,lcdAddress
 783 0072 0E94 0000 		call twiWrite
 784               	.LVL72:
 785 0076 85E0      		ldi r24,lo8(5)
 786 0078 90E0      		ldi r25,0
 787 007a 0E94 0000 		call time_delay16
 788               	.LVL73:
 789 007e 80E1      		ldi r24,lo8(16)
 790 0080 90E0      		ldi r25,0
 791 0082 0E94 0000 		call time_delay16
GAS LISTING /tmp/ccfXOBLh.s 			page 23


 792               	.LVL74:
 793               		.loc 2 529 0
 794 0086 60E0      		ldi r22,0
 795 0088 82E0      		ldi r24,lo8(2)
 796 008a 0E94 0000 		call lcdPrepare
 797               	.LVL75:
 798 008e 46E0      		ldi r20,lo8(6)
 799 0090 60E0      		ldi r22,lo8(lcdBuffer)
 800 0092 70E0      		ldi r23,hi8(lcdBuffer)
 801 0094 8091 0000 		lds r24,lcdAddress
 802 0098 0E94 0000 		call twiWrite
 803               	.LVL76:
 804 009c 85E0      		ldi r24,lo8(5)
 805 009e 90E0      		ldi r25,0
 806 00a0 0C94 0000 		jmp time_delay16
 807               	.LVL77:
 808               		.cfi_endproc
 809               	.LFE113:
 810               		.size	lcdInit, .-lcdInit
 811               		.section	.text.lcdSetup,"ax",@progbits
 812               	.global	lcdSetup
 813               		.type	lcdSetup, @function
 814               	lcdSetup:
 815               	.LFB114:
 816               		.loc 2 536 0
 817               		.cfi_startproc
 818               	.LVL78:
 819 0000 CF93      		push r28
 820               	.LCFI23:
 821               		.cfi_def_cfa_offset 4
 822               		.cfi_offset 28, -3
 823               	/* prologue: function */
 824               	/* frame size = 0 */
 825               	/* stack size = 1 */
 826               	.L__stack_usage = 1
 827 0002 C42F      		mov r28,r20
 828               		.loc 2 537 0
 829 0004 8093 0000 		sts lcdAddress,r24
 830               		.loc 2 538 0
 831 0008 6093 0000 		sts lcdCols,r22
 832               		.loc 2 539 0
 833 000c 4093 0000 		sts lcdRows,r20
 834               		.loc 2 540 0
 835 0010 2223      		tst r18
 836 0012 01F0      		breq .L64
 837 0014 88E0      		ldi r24,lo8(8)
 838               	.LVL79:
 839 0016 00C0      		rjmp .L62
 840               	.LVL80:
 841               	.L64:
 842 0018 80E0      		ldi r24,0
 843               	.LVL81:
 844               	.L62:
 845               		.loc 2 540 0 is_stmt 0 discriminator 3
 846 001a 8093 0000 		sts lcdBackLight,r24
 847               		.loc 2 541 0 is_stmt 1 discriminator 3
 848 001e 80E2      		ldi r24,lo8(32)
GAS LISTING /tmp/ccfXOBLh.s 			page 24


 849 0020 8093 0000 		sts lcdModes,r24
 850               		.loc 2 542 0 discriminator 3
 851 0024 86E0      		ldi r24,lo8(6)
 852 0026 8093 0000 		sts lcdShifts,r24
 853               		.loc 2 543 0 discriminator 3
 854 002a 8CE0      		ldi r24,lo8(12)
 855 002c 8093 0000 		sts lcdShows,r24
 856               		.loc 2 547 0 discriminator 3
 857 0030 46E0      		ldi r20,lo8(6)
 858               	.LVL82:
 859 0032 60EA      		ldi r22,lo8(-96)
 860 0034 76E8      		ldi r23,lo8(-122)
 861 0036 81E0      		ldi r24,lo8(1)
 862 0038 90E0      		ldi r25,0
 863               	.LVL83:
 864 003a 0E94 0000 		call twiSetup
 865               	.LVL84:
 866               		.loc 2 551 0 discriminator 3
 867 003e C230      		cpi r28,lo8(2)
 868 0040 00F0      		brlo .L63
 869               		.loc 2 551 0 is_stmt 0 discriminator 1
 870 0042 8091 0000 		lds r24,lcdModes
 871 0046 8860      		ori r24,lo8(8)
 872 0048 8093 0000 		sts lcdModes,r24
 873               	.L63:
 874               		.loc 2 555 0 is_stmt 1
 875 004c 60E0      		ldi r22,0
 876 004e 80E3      		ldi r24,lo8(48)
 877 0050 0E94 0000 		call lcdPrepare
 878               	.LVL85:
 879               		.loc 2 557 0
 880 0054 8FE0      		ldi r24,lo8(15)
 881 0056 90E0      		ldi r25,0
 882 0058 0E94 0000 		call time_delay16
 883               	.LVL86:
 884               		.loc 2 558 0
 885 005c 43E0      		ldi r20,lo8(3)
 886 005e 60E0      		ldi r22,lo8(lcdBuffer)
 887 0060 70E0      		ldi r23,hi8(lcdBuffer)
 888 0062 8091 0000 		lds r24,lcdAddress
 889 0066 0E94 0000 		call twiWrite
 890               	.LVL87:
 891 006a 85E0      		ldi r24,lo8(5)
 892 006c 90E0      		ldi r25,0
 893 006e 0E94 0000 		call time_delay16
 894               	.LVL88:
 895               		.loc 2 559 0
 896 0072 85E0      		ldi r24,lo8(5)
 897 0074 90E0      		ldi r25,0
 898 0076 0E94 0000 		call time_delay16
 899               	.LVL89:
 900               		.loc 2 560 0
 901 007a 43E0      		ldi r20,lo8(3)
 902 007c 60E0      		ldi r22,lo8(lcdBuffer)
 903 007e 70E0      		ldi r23,hi8(lcdBuffer)
 904 0080 8091 0000 		lds r24,lcdAddress
 905 0084 0E94 0000 		call twiWrite
GAS LISTING /tmp/ccfXOBLh.s 			page 25


 906               	.LVL90:
 907 0088 85E0      		ldi r24,lo8(5)
 908 008a 90E0      		ldi r25,0
 909 008c 0E94 0000 		call time_delay16
 910               	.LVL91:
 911               		.loc 2 561 0
 912 0090 80E9      		ldi r24,lo8(-112)
 913 0092 91E0      		ldi r25,lo8(1)
 914               	/* #APP */
 915               	 ;  561 "LCD1602ex.ino" 1
 916 0094 0197      		1: sbiw r24,1 
 917 0096 01F4      		brne 1b
 918               		
 919               	 ;  0 "" 2
 920               		.loc 2 562 0
 921               	/* #NOAPP */
 922 0098 43E0      		ldi r20,lo8(3)
 923 009a 60E0      		ldi r22,lo8(lcdBuffer)
 924 009c 70E0      		ldi r23,hi8(lcdBuffer)
 925 009e 8091 0000 		lds r24,lcdAddress
 926 00a2 0E94 0000 		call twiWrite
 927               	.LVL92:
 928 00a6 85E0      		ldi r24,lo8(5)
 929 00a8 90E0      		ldi r25,0
 930 00aa 0E94 0000 		call time_delay16
 931               	.LVL93:
 932               		.loc 2 564 0
 933 00ae 60E0      		ldi r22,0
 934 00b0 80E2      		ldi r24,lo8(32)
 935 00b2 0E94 0000 		call lcdPrepare
 936               	.LVL94:
 937               		.loc 2 565 0
 938 00b6 43E0      		ldi r20,lo8(3)
 939 00b8 60E0      		ldi r22,lo8(lcdBuffer)
 940 00ba 70E0      		ldi r23,hi8(lcdBuffer)
 941 00bc 8091 0000 		lds r24,lcdAddress
 942 00c0 0E94 0000 		call twiWrite
 943               	.LVL95:
 944 00c4 85E0      		ldi r24,lo8(5)
 945 00c6 90E0      		ldi r25,0
 946 00c8 0E94 0000 		call time_delay16
 947               	.LVL96:
 948               		.loc 2 567 0
 949 00cc 0E94 0000 		call lcdInit
 950               	.LVL97:
 951               		.loc 2 568 0
 952 00d0 84EF      		ldi r24,lo8(-12)
 953 00d2 91E0      		ldi r25,lo8(1)
 954               	/* epilogue start */
 955               		.loc 2 569 0
 956 00d4 CF91      		pop r28
 957               	.LVL98:
 958               		.loc 2 568 0
 959 00d6 0C94 0000 		jmp time_delay16
 960               	.LVL99:
 961               		.cfi_endproc
 962               	.LFE114:
GAS LISTING /tmp/ccfXOBLh.s 			page 26


 963               		.size	lcdSetup, .-lcdSetup
 964               		.section	.rodata.str1.1,"aMS",@progbits,1
 965               	.LC0:
 966 0000 4865 6C6C 		.string	"Hello, AAAAAA"
 966      6F2C 2041 
 966      4141 4141 
 966      4100 
 967               		.section	.text.setup,"ax",@progbits
 968               	.global	setup
 969               		.type	setup, @function
 970               	setup:
 971               	.LFB115:
 972               		.loc 2 577 0
 973               		.cfi_startproc
 974               	/* prologue: function */
 975               	/* frame size = 0 */
 976               	/* stack size = 0 */
 977               	.L__stack_usage = 0
 978               	.LBB6:
 979               		.loc 2 581 0
 980 0000 21E0      		ldi r18,lo8(1)
 981 0002 42E0      		ldi r20,lo8(2)
 982 0004 60E1      		ldi r22,lo8(16)
 983 0006 87E2      		ldi r24,lo8(39)
 984 0008 0E94 0000 		call lcdSetup
 985               	.LVL100:
 986               		.loc 2 582 0
 987 000c 6DE0      		ldi r22,lo8(13)
 988 000e 80E0      		ldi r24,lo8(.LC0)
 989 0010 90E0      		ldi r25,hi8(.LC0)
 990 0012 0C94 0000 		jmp lcdWrite
 991               	.LVL101:
 992               	.LBE6:
 993               		.cfi_endproc
 994               	.LFE115:
 995               		.size	setup, .-setup
 996               		.section	.text.loop,"ax",@progbits
 997               	.global	loop
 998               		.type	loop, @function
 999               	loop:
 1000               	.LFB116:
 1001               		.loc 2 588 0
 1002               		.cfi_startproc
 1003               	/* prologue: function */
 1004               	/* frame size = 0 */
 1005               	/* stack size = 0 */
 1006               	.L__stack_usage = 0
 1007 0000 0895      		ret
 1008               		.cfi_endproc
 1009               	.LFE116:
 1010               		.size	loop, .-loop
 1011               	.global	lcdBuffer
 1012               		.section	.bss.lcdBuffer,"aw",@nobits
 1013               		.type	lcdBuffer, @object
 1014               		.size	lcdBuffer, 6
 1015               	lcdBuffer:
 1016 0000 0000 0000 		.zero	6
GAS LISTING /tmp/ccfXOBLh.s 			page 27


 1016      0000 
 1017               	.global	lcdRows
 1018               		.section	.data.lcdRows,"aw",@progbits
 1019               		.type	lcdRows, @object
 1020               		.size	lcdRows, 1
 1021               	lcdRows:
 1022 0000 02        		.byte	2
 1023               	.global	lcdCols
 1024               		.section	.data.lcdCols,"aw",@progbits
 1025               		.type	lcdCols, @object
 1026               		.size	lcdCols, 1
 1027               	lcdCols:
 1028 0000 10        		.byte	16
 1029               	.global	lcdAddress
 1030               		.section	.data.lcdAddress,"aw",@progbits
 1031               		.type	lcdAddress, @object
 1032               		.size	lcdAddress, 1
 1033               	lcdAddress:
 1034 0000 27        		.byte	39
 1035               	.global	lcdBackLight
 1036               		.section	.data.lcdBackLight,"aw",@progbits
 1037               		.type	lcdBackLight, @object
 1038               		.size	lcdBackLight, 1
 1039               	lcdBackLight:
 1040 0000 08        		.byte	8
 1041               	.global	lcdShows
 1042               		.section	.data.lcdShows,"aw",@progbits
 1043               		.type	lcdShows, @object
 1044               		.size	lcdShows, 1
 1045               	lcdShows:
 1046 0000 08        		.byte	8
 1047               	.global	lcdShifts
 1048               		.section	.data.lcdShifts,"aw",@progbits
 1049               		.type	lcdShifts, @object
 1050               		.size	lcdShifts, 1
 1051               	lcdShifts:
 1052 0000 06        		.byte	6
 1053               	.global	lcdModes
 1054               		.section	.data.lcdModes,"aw",@progbits
 1055               		.type	lcdModes, @object
 1056               		.size	lcdModes, 1
 1057               	lcdModes:
 1058 0000 30        		.byte	48
 1059               		.section	.bss._ZL12twiStatistic,"aw",@nobits
 1060               		.type	_ZL12twiStatistic, @object
 1061               		.size	_ZL12twiStatistic, 20
 1062               	_ZL12twiStatistic:
 1063 0000 0000 0000 		.zero	20
 1063      0000 0000 
 1063      0000 0000 
 1063      0000 0000 
 1063      0000 0000 
 1064               	.global	twiSlaveWriter
 1065               		.section	.bss.twiSlaveWriter,"aw",@nobits
 1066               		.type	twiSlaveWriter, @object
 1067               		.size	twiSlaveWriter, 2
 1068               	twiSlaveWriter:
GAS LISTING /tmp/ccfXOBLh.s 			page 28


 1069 0000 0000      		.zero	2
 1070               	.global	twiSlaveReader
 1071               		.section	.bss.twiSlaveReader,"aw",@nobits
 1072               		.type	twiSlaveReader, @object
 1073               		.size	twiSlaveReader, 2
 1074               	twiSlaveReader:
 1075 0000 0000      		.zero	2
 1076               	.global	twiMasterReader
 1077               		.section	.bss.twiMasterReader,"aw",@nobits
 1078               		.type	twiMasterReader, @object
 1079               		.size	twiMasterReader, 2
 1080               	twiMasterReader:
 1081 0000 0000      		.zero	2
 1082               	.global	twiHookRestart
 1083               		.section	.bss.twiHookRestart,"aw",@nobits
 1084               		.type	twiHookRestart, @object
 1085               		.size	twiHookRestart, 2
 1086               	twiHookRestart:
 1087 0000 0000      		.zero	2
 1088               	.global	twiST_Ptr
 1089               		.section	.bss.twiST_Ptr,"aw",@nobits
 1090               		.type	twiST_Ptr, @object
 1091               		.size	twiST_Ptr, 2
 1092               	twiST_Ptr:
 1093 0000 0000      		.zero	2
 1094               	.global	twiST_Count
 1095               		.section	.bss.twiST_Count,"aw",@nobits
 1096               		.type	twiST_Count, @object
 1097               		.size	twiST_Count, 1
 1098               	twiST_Count:
 1099 0000 00        		.zero	1
 1100               	.global	twiRX_Ptr
 1101               		.section	.bss.twiRX_Ptr,"aw",@nobits
 1102               		.type	twiRX_Ptr, @object
 1103               		.size	twiRX_Ptr, 2
 1104               	twiRX_Ptr:
 1105 0000 0000      		.zero	2
 1106               	.global	twiRX_Count
 1107               		.section	.bss.twiRX_Count,"aw",@nobits
 1108               		.type	twiRX_Count, @object
 1109               		.size	twiRX_Count, 1
 1110               	twiRX_Count:
 1111 0000 00        		.zero	1
 1112               	.global	twiMT_Ptr
 1113               		.section	.bss.twiMT_Ptr,"aw",@nobits
 1114               		.type	twiMT_Ptr, @object
 1115               		.size	twiMT_Ptr, 2
 1116               	twiMT_Ptr:
 1117 0000 0000      		.zero	2
 1118               	.global	twiMT_Count
 1119               		.section	.bss.twiMT_Count,"aw",@nobits
 1120               		.type	twiMT_Count, @object
 1121               		.size	twiMT_Count, 1
 1122               	twiMT_Count:
 1123 0000 00        		.zero	1
 1124               	.global	twiSLARW
 1125               		.section	.bss.twiSLARW,"aw",@nobits
GAS LISTING /tmp/ccfXOBLh.s 			page 29


 1126               		.type	twiSLARW, @object
 1127               		.size	twiSLARW, 1
 1128               	twiSLARW:
 1129 0000 00        		.zero	1
 1130               	.global	twiState
 1131               		.section	.bss.twiState,"aw",@nobits
 1132               		.type	twiState, @object
 1133               		.size	twiState, 1
 1134               	twiState:
 1135 0000 00        		.zero	1
 1136               	.global	twiMode
 1137               		.section	.bss.twiMode,"aw",@nobits
 1138               		.type	twiMode, @object
 1139               		.size	twiMode, 1
 1140               	twiMode:
 1141 0000 00        		.zero	1
 1142               		.text
 1143               	.Letext0:
 1144               		.file 3 "/home/arhat109/progs/arduino-1.6.4/hardware/tools/avr/avr/include/stdint.h"
 1145               		.file 4 "/home/arhat109/Arduino/libraries/Arhat/arhat.h"