GAS LISTING /tmp/ccFP0NC0.s 			page 1


   1               		.file	"LCD1602ex.cpp"
   2               	__SP_H__ = 0x3e
   3               	__SP_L__ = 0x3d
   4               	__SREG__ = 0x3f
   5               	__RAMPZ__ = 0x3b
   6               	__tmp_reg__ = 0
   7               	__zero_reg__ = 1
   8               		.text
   9               	.Ltext0:
  10               		.cfi_sections	.debug_frame
  11               		.section	.text.twiSpeed,"ax",@progbits
  12               	.global	twiSpeed
  13               		.type	twiSpeed, @function
  14               	twiSpeed:
  15               	.LFB102:
  16               		.file 1 "/home/arhat109/Arduino/libraries/Arhat/arhat_twi2.h"
   1:/home/arhat109/Arduino/libraries/Arhat/arhat_twi2.h **** /**
   2:/home/arhat109/Arduino/libraries/Arhat/arhat_twi2.h ****  * –†–∞–±–æ—Ç–∞ —Å TWI (I2C, 2-Wire) –∏–Ω—Ç–µ—Ä—Ñ–µ–π—Å–æ–º —á–µ—Ä–µ–∑ –∞–ø–ø–∞—Ä–∞—Ç–Ω—ã–µ –ø—Ä–µ—
   3:/home/arhat109/Arduino/libraries/Arhat/arhat_twi2.h ****  *
   4:/home/arhat109/Arduino/libraries/Arhat/arhat_twi2.h ****  * ! –ê–ø–ø–∞—Ä–∞—Ç–Ω–æ –Ω–µ –±—ã–≤–∞–µ—Ç –æ–¥–Ω–æ–≤—Ä–µ–º–µ–Ω–Ω–æ —Ä–µ–∂–∏–º–∞ Master-RX –∏ Slave-
   5:/home/arhat109/Arduino/libraries/Arhat/arhat_twi2.h ****  * ! –ù–µ—Ç –Ω–∏–∫–∞–∫–∏—Ö "–ø—Ä–æ–≤–µ—Ä–æ–∫", –Ω–∞—Å—Ç—Ä–æ–π–∫–∞ –≥–ª–æ–±–∞–ª–æ–≤ - –æ–±—è–∑–∞—Ç–µ
   6:/home/arhat109/Arduino/libraries/Arhat/arhat_twi2.h ****  * Master-Transmitter: twiMT_Ptr, twiMT_Count                  -- –æ—Ç–∫—É–¥–∞ –∏ —Å–∫–æ–ª—å–∫–æ –±
   7:/home/arhat109/Arduino/libraries/Arhat/arhat_twi2.h ****  * Master-Receiver:    twiRX_Ptr, twiRX_Count, twiMasterReader -- –∫—É–¥–∞ –∏ —Å–∫–æ–ª—å–∫–æ –ø—Ä–∏
   8:/home/arhat109/Arduino/libraries/Arhat/arhat_twi2.h ****  * Slave-Receiver:     twiRX_Ptr, twiRX_Count, twiSlaveReader  -- –∫—É–¥–∞ –∏ —Å–∫–æ–ª—å–∫–æ –ø—Ä–∏
   9:/home/arhat109/Arduino/libraries/Arhat/arhat_twi2.h ****  * Slave-Transmitter:  twiST_Ptr, twiST_Count, twiSlaveWriter  -- –æ—Ç–∫—É–¥–∞ –∏ —Å–∫–æ–ª—å–∫–æ –æ
  10:/home/arhat109/Arduino/libraries/Arhat/arhat_twi2.h ****  *
  11:/home/arhat109/Arduino/libraries/Arhat/arhat_twi2.h ****  * –û—Å–æ–±–µ–Ω–Ω–æ—Å—Ç–∏ –∏ –æ—Ç–ª–∏—á–∏—è –æ—Ç —Ç–∏–ø–æ–≤—ã—Ö —Ä–∞–∑—Ä–∞–±–æ—Ç–æ–∫ (—Å–æ–±—Ä–∞–Ω–
  12:/home/arhat109/Arduino/libraries/Arhat/arhat_twi2.h ****  * 1. –í–æ–∑–º–æ–∂–Ω–æ—Å—Ç—å –æ–¥–Ω–æ–≤—Ä–µ–º–µ–Ω–Ω–æ–π —Ä–∞–±–æ—Ç—ã –∫–∞–∫ –≤ —Ä–µ–∂–∏–º–µ Master 
  13:/home/arhat109/Arduino/libraries/Arhat/arhat_twi2.h ****  * 2. –í–Ω–µ—à–Ω—è—è –±—É—Ñ–µ—Ä–∏–∑–∞—Ü–∏—è –¥–∞–Ω–Ω—ã—Ö –ø—Ä–∏ –Ω–µ–æ–±—Ö–æ–¥–∏–º–æ—Å—Ç–∏. –†–∞–∑–
  14:/home/arhat109/Arduino/libraries/Arhat/arhat_twi2.h ****  * 3. –í–æ–∑–º–æ–∂–Ω–æ—Å—Ç—å –≤–µ–¥–µ–Ω–∏—è —Å—Ç–∞—Ç–∏—Å—Ç–∏–∫–∏ - —É–ø—Ä–∞–≤–ª—è–µ—Ç—Å—è –∫–æ–Ω—Å—
  15:/home/arhat109/Arduino/libraries/Arhat/arhat_twi2.h ****  * 4. –ü—Ä–æ–∏–∑–≤–æ–ª—å–Ω–∞—è –Ω–∞—Å—Ç—Ä–æ–π–∫–∞ —Å–∫–æ—Ä–æ—Å—Ç–∏ —Ä–∞–±–æ—Ç—ã –∏–Ω—Ç–µ—Ä—Ñ–µ–π—Å–
  16:/home/arhat109/Arduino/libraries/Arhat/arhat_twi2.h ****  * 5. –í–æ–∑–º–æ–∂–Ω–æ—Å—Ç—å —É–º–µ–Ω—å—à–µ–Ω–Ω–æ–π –∫–æ–º–ø–ª–∏—Ü–∏–∏ —Ç–æ–ª—å–∫–æ —Ä–µ–∂–∏–º–∞ Ma
  17:/home/arhat109/Arduino/libraries/Arhat/arhat_twi2.h ****  *
  18:/home/arhat109/Arduino/libraries/Arhat/arhat_twi2.h ****  * –ö–æ–Ω—Å—Ç–∞–Ω—Ç—ã –∫–æ–º–ø–∏–ª—è—Ü–∏–∏ #define –∏ default_value:
  19:/home/arhat109/Arduino/libraries/Arhat/arhat_twi2.h ****  * #define TWI_LOG_ON   1 // –µ—Å–ª–∏ –Ω–µ –æ–ø—Ä–µ–¥–µ–ª–µ–Ω–æ, —Ç–æ –Ω–µ –∫–æ–º–ø–∏–ª–∏—Ä–æ–≤–∞—Ç
  20:/home/arhat109/Arduino/libraries/Arhat/arhat_twi2.h ****  * #define TWI_SLAVE_ON 1 // –µ—Å–ª–∏ –Ω–µ –æ–ø—Ä–µ–¥–µ–ª–µ–Ω–æ, —Ç–æ –Ω–µ –∫–æ–º–ø–∏–ª–∏—Ä–æ–≤–∞—Ç
  21:/home/arhat109/Arduino/libraries/Arhat/arhat_twi2.h ****  *
  22:/home/arhat109/Arduino/libraries/Arhat/arhat_twi2.h ****  * @author Arhat109-20160402. arhat109@mail.ru
  23:/home/arhat109/Arduino/libraries/Arhat/arhat_twi2.h ****  * @license:
  24:/home/arhat109/Arduino/libraries/Arhat/arhat_twi2.h ****  *   1. This is a free software for any using and distributing without any warranties.
  25:/home/arhat109/Arduino/libraries/Arhat/arhat_twi2.h ****  *   2. You should keep author tag with any changes. May be with adding.
  26:/home/arhat109/Arduino/libraries/Arhat/arhat_twi2.h ****  *   –≠—Ç–æ —Å–≤–æ–±–æ–¥–Ω–æ–µ –ü–û –¥–ª—è –ª—é–±–æ–≥–æ –∏—Å–ø–æ–ª—å–∑–æ–≤–∞–Ω–∏—è –±–µ–∑ –∫–∞–∫–∏—
  27:/home/arhat109/Arduino/libraries/Arhat/arhat_twi2.h ****  *   –¢—Ä–µ–±—É–µ—Ç—Å—è —Å–æ—Ö—Ä–∞–Ω—è—Ç—å —Ç–µ–≥ @author –ø—Ä–∏ –ª—é–±—ã—Ö –∏–∑–º–µ–Ω–µ–Ω–∏—è—Ö. –
  28:/home/arhat109/Arduino/libraries/Arhat/arhat_twi2.h ****  */
  29:/home/arhat109/Arduino/libraries/Arhat/arhat_twi2.h **** #ifndef ARHAT_TWI_H
  30:/home/arhat109/Arduino/libraries/Arhat/arhat_twi2.h **** #define ARHAT_TWI_H 1
  31:/home/arhat109/Arduino/libraries/Arhat/arhat_twi2.h **** 
  32:/home/arhat109/Arduino/libraries/Arhat/arhat_twi2.h **** //#include "arhat.h"
  33:/home/arhat109/Arduino/libraries/Arhat/arhat_twi2.h **** // Compiler mode ONLY! Use as digits into #define TWI_ON before include this file ONLY!
  34:/home/arhat109/Arduino/libraries/Arhat/arhat_twi2.h **** // @TODO: to move into arhat.h
  35:/home/arhat109/Arduino/libraries/Arhat/arhat_twi2.h **** #define TWI_MASTER_TX    1
  36:/home/arhat109/Arduino/libraries/Arhat/arhat_twi2.h **** #define TWI_MASTER_RX    2
  37:/home/arhat109/Arduino/libraries/Arhat/arhat_twi2.h **** #define TWI_IS_SLAVE_RX  4
  38:/home/arhat109/Arduino/libraries/Arhat/arhat_twi2.h **** #define TWI_IS_SLAVE_TX  8
  39:/home/arhat109/Arduino/libraries/Arhat/arhat_twi2.h **** #define TWI_LOG_ON      16
  40:/home/arhat109/Arduino/libraries/Arhat/arhat_twi2.h **** 
  41:/home/arhat109/Arduino/libraries/Arhat/arhat_twi2.h **** // ------------ All states TWI status register AND twiState: ------------- //
GAS LISTING /tmp/ccFP0NC0.s 			page 2


  42:/home/arhat109/Arduino/libraries/Arhat/arhat_twi2.h **** // Misc
  43:/home/arhat109/Arduino/libraries/Arhat/arhat_twi2.h **** #define TWI_ERROR                  0x00 // Misc: illegal start or stop condition
  44:/home/arhat109/Arduino/libraries/Arhat/arhat_twi2.h **** #define TWI_NO_INFO                0xF8 // Misc: no state information available
  45:/home/arhat109/Arduino/libraries/Arhat/arhat_twi2.h **** 
  46:/home/arhat109/Arduino/libraries/Arhat/arhat_twi2.h **** // I am Master
  47:/home/arhat109/Arduino/libraries/Arhat/arhat_twi2.h **** #define TWI_START                  0x08 // start condition transmitted
  48:/home/arhat109/Arduino/libraries/Arhat/arhat_twi2.h **** #define TWI_REP_START              0x10 // repeated start condition transmitted
  49:/home/arhat109/Arduino/libraries/Arhat/arhat_twi2.h **** #define TWI_MTR_ARB_LOST           0x38 // arbitration lost in SLA+W or data
  50:/home/arhat109/Arduino/libraries/Arhat/arhat_twi2.h **** 
  51:/home/arhat109/Arduino/libraries/Arhat/arhat_twi2.h **** // Master Transmitter
  52:/home/arhat109/Arduino/libraries/Arhat/arhat_twi2.h **** #define TWI_MT_SLA_ACK             0x18 // address: SLA+W transmitted, ACK received
  53:/home/arhat109/Arduino/libraries/Arhat/arhat_twi2.h **** #define TWI_MT_SLA_NACK            0x20 // address: SLA+W transmitted, NACK received
  54:/home/arhat109/Arduino/libraries/Arhat/arhat_twi2.h **** #define TWI_MT_DATA_ACK            0x28 // data: transmitted, ACK received
  55:/home/arhat109/Arduino/libraries/Arhat/arhat_twi2.h **** #define TWI_MT_DATA_NACK           0x30 // data: transmitted, NACK received
  56:/home/arhat109/Arduino/libraries/Arhat/arhat_twi2.h **** 
  57:/home/arhat109/Arduino/libraries/Arhat/arhat_twi2.h **** // Master Receiver
  58:/home/arhat109/Arduino/libraries/Arhat/arhat_twi2.h **** #define TWI_MR_SLA_ACK             0x40 // address: SLA+R transmitted, ACK received
  59:/home/arhat109/Arduino/libraries/Arhat/arhat_twi2.h **** #define TWI_MR_SLA_NACK            0x48 // address: SLA+R transmitted, NACK received
  60:/home/arhat109/Arduino/libraries/Arhat/arhat_twi2.h **** #define TWI_MR_DATA_ACK            0x50 // data: received, ACK returned
  61:/home/arhat109/Arduino/libraries/Arhat/arhat_twi2.h **** #define TWI_MR_DATA_NACK           0x58 // data: received, NACK returned
  62:/home/arhat109/Arduino/libraries/Arhat/arhat_twi2.h **** 
  63:/home/arhat109/Arduino/libraries/Arhat/arhat_twi2.h **** // I am Slave
  64:/home/arhat109/Arduino/libraries/Arhat/arhat_twi2.h **** // Slave Receiver
  65:/home/arhat109/Arduino/libraries/Arhat/arhat_twi2.h **** #define TWI_SR_SLA_ACK             0x60 // address: SLA+W received, ACK returned
  66:/home/arhat109/Arduino/libraries/Arhat/arhat_twi2.h **** #define TWI_SR_ARB_LOST_SLA_ACK    0x68 // arbitration lost in SLA+RW, SLA+W received, ACK returned
  67:/home/arhat109/Arduino/libraries/Arhat/arhat_twi2.h **** #define TWI_SR_GCALL_ACK           0x70 // general call received, ACK returned
  68:/home/arhat109/Arduino/libraries/Arhat/arhat_twi2.h **** #define TWI_SR_ARB_LOST_GCALL_ACK  0x78 // arbitration lost in SLA+RW, general call received, ACK r
  69:/home/arhat109/Arduino/libraries/Arhat/arhat_twi2.h **** #define TWI_SR_DATA_ACK            0x80 // data: received, ACK returned
  70:/home/arhat109/Arduino/libraries/Arhat/arhat_twi2.h **** #define TWI_SR_DATA_NACK           0x88 // data: received, NACK returned
  71:/home/arhat109/Arduino/libraries/Arhat/arhat_twi2.h **** #define TWI_SR_GCALL_DATA_ACK      0x90 // general call data received, ACK returned
  72:/home/arhat109/Arduino/libraries/Arhat/arhat_twi2.h **** #define TWI_SR_GCALL_DATA_NACK     0x98 // general call data received, NACK returned
  73:/home/arhat109/Arduino/libraries/Arhat/arhat_twi2.h **** #define TWI_SR_STOP                0xA0 // stop or repeated start condition received while selected
  74:/home/arhat109/Arduino/libraries/Arhat/arhat_twi2.h **** 
  75:/home/arhat109/Arduino/libraries/Arhat/arhat_twi2.h **** // Slave Transmitter
  76:/home/arhat109/Arduino/libraries/Arhat/arhat_twi2.h **** #define TWI_ST_SLA_ACK             0xA8 // address: SLA+R received, ACK returned
  77:/home/arhat109/Arduino/libraries/Arhat/arhat_twi2.h **** #define TWI_ST_ARB_LOST_SLA_ACK    0xB0 // arbitration lost in SLA+RW, SLA+R received, ACK returned
  78:/home/arhat109/Arduino/libraries/Arhat/arhat_twi2.h **** #define TWI_ST_DATA_ACK            0xB8 // data: transmitted, ACK received
  79:/home/arhat109/Arduino/libraries/Arhat/arhat_twi2.h **** #define TWI_ST_DATA_NACK           0xC0 // data: transmitted, NACK received
  80:/home/arhat109/Arduino/libraries/Arhat/arhat_twi2.h **** #define TWI_ST_LAST_DATA           0xC8 // last data byte transmitted, ACK received
  81:/home/arhat109/Arduino/libraries/Arhat/arhat_twi2.h **** 
  82:/home/arhat109/Arduino/libraries/Arhat/arhat_twi2.h **** // ------------ Macros for TWI ------------- //
  83:/home/arhat109/Arduino/libraries/Arhat/arhat_twi2.h **** 
  84:/home/arhat109/Arduino/libraries/Arhat/arhat_twi2.h **** #define TWI_STATUS_MASK (_BV(TWS7)|_BV(TWS6)|_BV(TWS5)|_BV(TWS4)|_BV(TWS3)) // Two LSB are prescale
  85:/home/arhat109/Arduino/libraries/Arhat/arhat_twi2.h **** #define TWI_STATUS      (TWSR & TWI_STATUS_MASK)                            // Get status from TWSR
  86:/home/arhat109/Arduino/libraries/Arhat/arhat_twi2.h **** 
  87:/home/arhat109/Arduino/libraries/Arhat/arhat_twi2.h **** #define TWI_READ    1                   // for SLA+R address
  88:/home/arhat109/Arduino/libraries/Arhat/arhat_twi2.h **** #define TWI_WRITE   0                   // SLA+W address
  89:/home/arhat109/Arduino/libraries/Arhat/arhat_twi2.h **** #define TWI_ACK     1
  90:/home/arhat109/Arduino/libraries/Arhat/arhat_twi2.h **** #define TWI_NACK    0
  91:/home/arhat109/Arduino/libraries/Arhat/arhat_twi2.h **** 
  92:/home/arhat109/Arduino/libraries/Arhat/arhat_twi2.h **** #define twiOn()       (PRR0 &= ~_BV(7)) // =0: TWI power is On (default on power!)
  93:/home/arhat109/Arduino/libraries/Arhat/arhat_twi2.h **** #define twiOff()      (PRR0 |= _BV(7))  // =1: TWI power is Off
  94:/home/arhat109/Arduino/libraries/Arhat/arhat_twi2.h **** 
  95:/home/arhat109/Arduino/libraries/Arhat/arhat_twi2.h **** /**
  96:/home/arhat109/Arduino/libraries/Arhat/arhat_twi2.h ****  * Set twi bit rate and prescaler: _twbr:[0..255], _twsr:[0..3]
  97:/home/arhat109/Arduino/libraries/Arhat/arhat_twi2.h ****  * ------------------------------------------------------------
  98:/home/arhat109/Arduino/libraries/Arhat/arhat_twi2.h ****  * _twsr = 3: scl freq. = [   490 .. 111_111] hz
GAS LISTING /tmp/ccFP0NC0.s 			page 3


  99:/home/arhat109/Arduino/libraries/Arhat/arhat_twi2.h ****  * _twsr = 2: scl freq. = [ 1_960 .. 333_333] hz
 100:/home/arhat109/Arduino/libraries/Arhat/arhat_twi2.h ****  * _twsr = 1: scl freq. = [ 7_782 .. 666_667] hz
 101:/home/arhat109/Arduino/libraries/Arhat/arhat_twi2.h ****  * _twsr = 0: scl freq. = [30_418 .. 888_889] hz
 102:/home/arhat109/Arduino/libraries/Arhat/arhat_twi2.h ****  * IF _twbr = 0: frequency equal 1 Mhz with any _twsr!
 103:/home/arhat109/Arduino/libraries/Arhat/arhat_twi2.h ****  *
 104:/home/arhat109/Arduino/libraries/Arhat/arhat_twi2.h ****  * @example twiSetRate(72,0) : use 100_000hz standart mode
 105:/home/arhat109/Arduino/libraries/Arhat/arhat_twi2.h ****  * @example twiSetRate(12,0) : use 400_000hz standart mode
 106:/home/arhat109/Arduino/libraries/Arhat/arhat_twi2.h ****  * @example twiSetRate(0,0)  : use 1 Mhz mode
 107:/home/arhat109/Arduino/libraries/Arhat/arhat_twi2.h ****  */
 108:/home/arhat109/Arduino/libraries/Arhat/arhat_twi2.h **** #define twiSetRate(_twbr, _twsr)      \
 109:/home/arhat109/Arduino/libraries/Arhat/arhat_twi2.h **** {                                     \
 110:/home/arhat109/Arduino/libraries/Arhat/arhat_twi2.h ****   _SFR_BYTE(TWSR) = (uint8_t)(_twsr); \
 111:/home/arhat109/Arduino/libraries/Arhat/arhat_twi2.h ****   TWBR = (uint8_t)(_twbr);            \
 112:/home/arhat109/Arduino/libraries/Arhat/arhat_twi2.h **** }
 113:/home/arhat109/Arduino/libraries/Arhat/arhat_twi2.h **** /**
 114:/home/arhat109/Arduino/libraries/Arhat/arhat_twi2.h ****  * –ú–∞–∫—Ä–æ—Å—ã —É–ø—Ä–∞–≤–ª–µ–Ω–∏—è –∞–≤—Ç–æ–º–∞—Ç–æ–º TWI: –ø–æ—Å–ª–µ–¥–Ω—è—è –∫–æ–º–∞–Ω–¥–∞ –≤
 115:/home/arhat109/Arduino/libraries/Arhat/arhat_twi2.h ****  *
 116:/home/arhat109/Arduino/libraries/Arhat/arhat_twi2.h ****  * @param bool ack -- –µ—Å—Ç—å –ª–∏ —Ä–µ–∂–∏–º—ã Slave, –Ω–∞–¥–æ –ª–∏ —Å–ª—É—à–∞—Ç—å —à–∏–Ω—É?
 117:/home/arhat109/Arduino/libraries/Arhat/arhat_twi2.h ****  *
 118:/home/arhat109/Arduino/libraries/Arhat/arhat_twi2.h ****  * twiStart()      -- –≤–∫–ª—é—á–∞–µ–º, —Ä–∞–∑—Ä–µ—à–∞–µ–º, —Å–±—Ä–æ—Å –ø—Ä–µ—Ä—ã–≤–∞–Ω–∏–µ(–∑–∞–ø—
 119:/home/arhat109/Arduino/libraries/Arhat/arhat_twi2.h ****  * twiReply()      -- –æ–Ω–æ –∂–µ, —Ç–æ–ª—å–∫–æ –±–µ–∑ —Å—Ç–∞—Ä—Ç–∞
 120:/home/arhat109/Arduino/libraries/Arhat/arhat_twi2.h ****  * twiReleaseBus() -- –≤–∫–ª—é—á–∞–µ–º, —Å–±—Ä–æ—Å –ø—Ä–µ—Ä—ã–≤–∞–Ω–∏–µ(–∑–∞–ø—É—Å–∫ –ö–ê), –∞ –≤–æ
 121:/home/arhat109/Arduino/libraries/Arhat/arhat_twi2.h ****  * twiStop()       -- –æ–Ω–æ –∂–µ, —Ç–æ–ª—å–∫–æ –µ—â—ë –∏ –æ—Ç–ø—Ä–∞–≤–ª—è–µ–º "—Å—Ç–æ–ø" –≤ —à–∏–Ω
 122:/home/arhat109/Arduino/libraries/Arhat/arhat_twi2.h ****  */
 123:/home/arhat109/Arduino/libraries/Arhat/arhat_twi2.h **** #define twiStart(ack)                   (_BV(TWEN)|_BV(TWINT)|_BV(TWIE)|_BV(TWSTA)|((ack)?_BV(TWEA)
 124:/home/arhat109/Arduino/libraries/Arhat/arhat_twi2.h **** #define twiReply(ack)                   (_BV(TWEN)|_BV(TWINT)|_BV(TWIE)|((ack)? _BV(TWEA):0))
 125:/home/arhat109/Arduino/libraries/Arhat/arhat_twi2.h **** #define twiReleaseBus(ack)              (_BV(TWEN)|_BV(TWINT)|((ack)? _BV(TWEA)|_BV(TWIE):0))
 126:/home/arhat109/Arduino/libraries/Arhat/arhat_twi2.h **** #define twiSetAddress(address, isGcall) (TWAR  = (uint8_t)(((address) << 1)|((isGcall)&0x01)))
 127:/home/arhat109/Arduino/libraries/Arhat/arhat_twi2.h **** #define twiSetMaskAddress(mask)         (TWAMR = (uint8_t)(mask))
 128:/home/arhat109/Arduino/libraries/Arhat/arhat_twi2.h **** #define twiStop(ack)                    \
 129:/home/arhat109/Arduino/libraries/Arhat/arhat_twi2.h **** {                                       \
 130:/home/arhat109/Arduino/libraries/Arhat/arhat_twi2.h ****   TWCR = _BV(TWSTO)|twiReleaseBus(ack); \
 131:/home/arhat109/Arduino/libraries/Arhat/arhat_twi2.h ****   while(TWCR & _BV(TWSTO));             \
 132:/home/arhat109/Arduino/libraries/Arhat/arhat_twi2.h ****   twiMode |= TWI_READY;                 \
 133:/home/arhat109/Arduino/libraries/Arhat/arhat_twi2.h **** }
 134:/home/arhat109/Arduino/libraries/Arhat/arhat_twi2.h **** 
 135:/home/arhat109/Arduino/libraries/Arhat/arhat_twi2.h **** #ifdef __cplusplus
 136:/home/arhat109/Arduino/libraries/Arhat/arhat_twi2.h ****     extern "C" {
 137:/home/arhat109/Arduino/libraries/Arhat/arhat_twi2.h **** #endif
 138:/home/arhat109/Arduino/libraries/Arhat/arhat_twi2.h **** // ------------ TWI internal variables ------------- //
 139:/home/arhat109/Arduino/libraries/Arhat/arhat_twi2.h **** 
 140:/home/arhat109/Arduino/libraries/Arhat/arhat_twi2.h **** enum TWI_Modes {
 141:/home/arhat109/Arduino/libraries/Arhat/arhat_twi2.h ****      TWI_IS_SLAVE  = 1                                  // have I slave mode too?
 142:/home/arhat109/Arduino/libraries/Arhat/arhat_twi2.h ****     ,TWI_SEND_STOP = 2                                  // is need send stop when Master is ending?
 143:/home/arhat109/Arduino/libraries/Arhat/arhat_twi2.h ****     ,TWI_READY     = 4                                  // previous work is ended
 144:/home/arhat109/Arduino/libraries/Arhat/arhat_twi2.h **** };
 145:/home/arhat109/Arduino/libraries/Arhat/arhat_twi2.h **** 
 146:/home/arhat109/Arduino/libraries/Arhat/arhat_twi2.h **** volatile uint8_t    twiMode;
 147:/home/arhat109/Arduino/libraries/Arhat/arhat_twi2.h **** volatile uint8_t    twiState;                           // state TWI automat
 148:/home/arhat109/Arduino/libraries/Arhat/arhat_twi2.h **** volatile uint8_t    twiSLARW;                           // address for send to (SLARW)
 149:/home/arhat109/Arduino/libraries/Arhat/arhat_twi2.h **** 
 150:/home/arhat109/Arduino/libraries/Arhat/arhat_twi2.h **** volatile uint8_t   twiMT_Count;                         // –æ—Å—Ç–∞—Ç–æ–∫ –±–∞–π—Ç –¥–ª—è –ø–µ—Ä–µ–
 151:/home/arhat109/Arduino/libraries/Arhat/arhat_twi2.h **** volatile uint8_t  * twiMT_Ptr;                          // —É–∫–∞–∑–∞—Ç–µ–ª—å —Ç–µ–∫—É—â–µ–≥–æ –±–∞
 152:/home/arhat109/Arduino/libraries/Arhat/arhat_twi2.h **** 
 153:/home/arhat109/Arduino/libraries/Arhat/arhat_twi2.h **** volatile uint8_t   twiRX_Count;                         // –æ—Å—Ç–∞—Ç–æ–∫ –±–∞–π—Ç –¥–ª—è –ø—Ä–∏–µ–
 154:/home/arhat109/Arduino/libraries/Arhat/arhat_twi2.h **** volatile uint8_t  * twiRX_Ptr;                          // —É–∫–∞–∑–∞—Ç–µ–ª—å —Ç–µ–∫—É—â–µ–≥–æ –±–∞
 155:/home/arhat109/Arduino/libraries/Arhat/arhat_twi2.h **** 
GAS LISTING /tmp/ccFP0NC0.s 			page 4


 156:/home/arhat109/Arduino/libraries/Arhat/arhat_twi2.h **** volatile uint8_t   twiST_Count;                         // –æ—Å—Ç–∞—Ç–æ–∫ –±–∞–π—Ç –¥–ª—è –ø–µ—Ä–µ–
 157:/home/arhat109/Arduino/libraries/Arhat/arhat_twi2.h **** volatile uint8_t  * twiST_Ptr;                          // —É–∫–∞–∑–∞—Ç–µ–ª—å —Ç–µ–∫—É—â–µ–≥–æ –±–∞
 158:/home/arhat109/Arduino/libraries/Arhat/arhat_twi2.h **** 
 159:/home/arhat109/Arduino/libraries/Arhat/arhat_twi2.h **** volatile void    (* twiHookRestart)(void) = 0;          // —É–∫–∞–∑–∞—Ç–µ–ª—å –Ω–∞ —Ñ—É–Ω–∫—Ü–∏—é –
 160:/home/arhat109/Arduino/libraries/Arhat/arhat_twi2.h **** volatile void    (* twiMasterReader)(void) = 0;         // —É–∫–∞–∑–∞—Ç–µ–ª—å –Ω–∞ —Ñ—É–Ω–∫—Ü–∏—é "
 161:/home/arhat109/Arduino/libraries/Arhat/arhat_twi2.h **** volatile void    (* twiSlaveReader)(void) = 0;          // —É–∫–∞–∑–∞—Ç–µ–ª—å –Ω–∞ —Ñ—É–Ω–∫—Ü–∏—é "
 162:/home/arhat109/Arduino/libraries/Arhat/arhat_twi2.h **** volatile void    (* twiSlaveWriter)(void) = 0;          // —É–∫–∞–∑–∞—Ç–µ–ª—å –Ω–∞ —Ñ—É–Ω–∫—Ü–∏—é "
 163:/home/arhat109/Arduino/libraries/Arhat/arhat_twi2.h **** 
 164:/home/arhat109/Arduino/libraries/Arhat/arhat_twi2.h **** #ifdef TWI_LOG_ON
 165:/home/arhat109/Arduino/libraries/Arhat/arhat_twi2.h **** 
 166:/home/arhat109/Arduino/libraries/Arhat/arhat_twi2.h **** typedef struct {
 167:/home/arhat109/Arduino/libraries/Arhat/arhat_twi2.h ****     uint16_t   starts,restarts,stops,losts,noslarw,mtx,mrx,srx,grx,stx;
 168:/home/arhat109/Arduino/libraries/Arhat/arhat_twi2.h **** } TWI_Stat;
 169:/home/arhat109/Arduino/libraries/Arhat/arhat_twi2.h **** #define ptrTWI_Stat(ptr)  ((TWI_Stat *)(ptr))
 170:/home/arhat109/Arduino/libraries/Arhat/arhat_twi2.h **** static volatile TWI_Stat    twiStatistic;
 171:/home/arhat109/Arduino/libraries/Arhat/arhat_twi2.h **** 
 172:/home/arhat109/Arduino/libraries/Arhat/arhat_twi2.h **** #endif // TWI_LOG_ON
 173:/home/arhat109/Arduino/libraries/Arhat/arhat_twi2.h **** 
 174:/home/arhat109/Arduino/libraries/Arhat/arhat_twi2.h **** // ------------ TWI functions ------------- //
 175:/home/arhat109/Arduino/libraries/Arhat/arhat_twi2.h **** 
 176:/home/arhat109/Arduino/libraries/Arhat/arhat_twi2.h **** /**
 177:/home/arhat109/Arduino/libraries/Arhat/arhat_twi2.h ****  * Autocalculate and set twi prescaler and bit rate
 178:/home/arhat109/Arduino/libraries/Arhat/arhat_twi2.h ****  * 1Mhz      .. 30.418khz : TWSR=0!
 179:/home/arhat109/Arduino/libraries/Arhat/arhat_twi2.h ****  * 30.42khz  ..  7.782khz : TWSR=1
 180:/home/arhat109/Arduino/libraries/Arhat/arhat_twi2.h ****  *  7.782khz ..  1.960khz : TWSR=2
 181:/home/arhat109/Arduino/libraries/Arhat/arhat_twi2.h ****  *  1/960khz ..  0.490khz : TWSR=3
 182:/home/arhat109/Arduino/libraries/Arhat/arhat_twi2.h ****  */
 183:/home/arhat109/Arduino/libraries/Arhat/arhat_twi2.h **** void twiSpeed(uint32_t freq)
 184:/home/arhat109/Arduino/libraries/Arhat/arhat_twi2.h **** {
  17               		.loc 1 184 0
  18               		.cfi_startproc
  19               	.LVL0:
  20               	/* prologue: function */
  21               	/* frame size = 0 */
  22               	/* stack size = 0 */
  23               	.L__stack_usage = 0
  24 0000 9B01      		movw r18,r22
  25 0002 AC01      		movw r20,r24
  26               	.LBB2:
 185:/home/arhat109/Arduino/libraries/Arhat/arhat_twi2.h ****     uint16_t bitRate = (F_CPU / freq) - 16;
  27               		.loc 1 185 0
  28 0004 60E0      		ldi r22,0
  29 0006 74E2      		ldi r23,lo8(36)
  30 0008 84EF      		ldi r24,lo8(-12)
  31 000a 90E0      		ldi r25,0
  32               	.LVL1:
  33 000c 0E94 0000 		call __udivmodsi4
  34               	.LVL2:
  35 0010 2051      		subi r18,16
  36 0012 3109      		sbc r19,__zero_reg__
  37               	.LVL3:
 186:/home/arhat109/Arduino/libraries/Arhat/arhat_twi2.h ****     uint8_t  bitMul  = 0;
  38               		.loc 1 186 0
  39 0014 80E0      		ldi r24,0
  40               	.LVL4:
  41               	.L2:
 187:/home/arhat109/Arduino/libraries/Arhat/arhat_twi2.h **** 
GAS LISTING /tmp/ccFP0NC0.s 			page 5


 188:/home/arhat109/Arduino/libraries/Arhat/arhat_twi2.h ****     while( (bitRate > 511) && (bitMul < 3) ){
  42               		.loc 1 188 0 discriminator 1
  43 0016 2115      		cp r18,__zero_reg__
  44 0018 92E0      		ldi r25,2
  45 001a 3907      		cpc r19,r25
  46 001c 00F0      		brlo .L3
  47               		.loc 1 188 0 is_stmt 0 discriminator 2
  48 001e 8330      		cpi r24,lo8(3)
  49 0020 01F0      		breq .L3
 189:/home/arhat109/Arduino/libraries/Arhat/arhat_twi2.h ****         bitRate /= 4; bitRate += 1; bitMul++;
  50               		.loc 1 189 0 is_stmt 1
  51 0022 3695      		lsr r19
  52 0024 2795      		ror r18
  53 0026 3695      		lsr r19
  54 0028 2795      		ror r18
  55               	.LVL5:
  56 002a 2F5F      		subi r18,-1
  57 002c 3F4F      		sbci r19,-1
  58               	.LVL6:
  59 002e 8F5F      		subi r24,lo8(-(1))
  60               	.LVL7:
  61 0030 00C0      		rjmp .L2
  62               	.L3:
 190:/home/arhat109/Arduino/libraries/Arhat/arhat_twi2.h ****     }
 191:/home/arhat109/Arduino/libraries/Arhat/arhat_twi2.h ****     bitRate /= 2;
  63               		.loc 1 191 0
  64 0032 3695      		lsr r19
  65 0034 2795      		ror r18
  66               	.LVL8:
 192:/home/arhat109/Arduino/libraries/Arhat/arhat_twi2.h ****     if( bitRate > 255 ) return;
  67               		.loc 1 192 0
  68 0036 2F3F      		cpi r18,-1
  69 0038 3105      		cpc r19,__zero_reg__
  70 003a 01F0      		breq .+2
  71 003c 00F4      		brsh .L1
 193:/home/arhat109/Arduino/libraries/Arhat/arhat_twi2.h ****     twiSetRate(bitRate, bitMul);
  72               		.loc 1 193 0
  73 003e 8093 B900 		sts 185,r24
  74 0042 2093 B800 		sts 184,r18
  75               	.L1:
  76 0046 0895      		ret
  77               	.LBE2:
  78               		.cfi_endproc
  79               	.LFE102:
  80               		.size	twiSpeed, .-twiSpeed
  81               		.section	.text.twiSetup,"ax",@progbits
  82               	.global	twiSetup
  83               		.type	twiSetup, @function
  84               	twiSetup:
  85               	.LFB103:
 194:/home/arhat109/Arduino/libraries/Arhat/arhat_twi2.h **** }
 195:/home/arhat109/Arduino/libraries/Arhat/arhat_twi2.h **** 
 196:/home/arhat109/Arduino/libraries/Arhat/arhat_twi2.h **** /**
 197:/home/arhat109/Arduino/libraries/Arhat/arhat_twi2.h ****  * for Arduino setup() as Master or Slave or Both modes
 198:/home/arhat109/Arduino/libraries/Arhat/arhat_twi2.h ****  * freq:[490 .. 1 000 000], mode:[0,TWI_IS_SLAVE]
 199:/home/arhat109/Arduino/libraries/Arhat/arhat_twi2.h ****  */
 200:/home/arhat109/Arduino/libraries/Arhat/arhat_twi2.h **** void twiSetup(uint32_t freq, uint8_t mode)
GAS LISTING /tmp/ccFP0NC0.s 			page 6


 201:/home/arhat109/Arduino/libraries/Arhat/arhat_twi2.h **** {
  86               		.loc 1 201 0
  87               		.cfi_startproc
  88               	.LVL9:
  89 0000 CF93      		push r28
  90               	.LCFI0:
  91               		.cfi_def_cfa_offset 4
  92               		.cfi_offset 28, -3
  93 0002 DF93      		push r29
  94               	.LCFI1:
  95               		.cfi_def_cfa_offset 5
  96               		.cfi_offset 29, -4
  97 0004 1F92      		push __zero_reg__
  98               	.LCFI2:
  99               		.cfi_def_cfa_offset 6
 100 0006 CDB7      		in r28,__SP_L__
 101 0008 DEB7      		in r29,__SP_H__
 102               	.LCFI3:
 103               		.cfi_def_cfa_register 28
 104               	/* prologue: function */
 105               	/* frame size = 1 */
 106               	/* stack size = 3 */
 107               	.L__stack_usage = 3
 202:/home/arhat109/Arduino/libraries/Arhat/arhat_twi2.h ****     digitalWrite(I2C_SDA, HIGH);                                  // internal pullup is ON.
 108               		.loc 1 202 0
 109 000a 599A      		sbi 0xb,1
 203:/home/arhat109/Arduino/libraries/Arhat/arhat_twi2.h ****     digitalWrite(I2C_SCL, HIGH);
 110               		.loc 1 203 0
 111 000c 589A      		sbi 0xb,0
 204:/home/arhat109/Arduino/libraries/Arhat/arhat_twi2.h ****     twiSpeed(freq);                                               // set bitrate and prescaler for 
 112               		.loc 1 204 0
 113 000e 4983      		std Y+1,r20
 114 0010 0E94 0000 		call twiSpeed
 115               	.LVL10:
 205:/home/arhat109/Arduino/libraries/Arhat/arhat_twi2.h ****     twiMode = mode;
 116               		.loc 1 205 0
 117 0014 4981      		ldd r20,Y+1
 118 0016 4093 0000 		sts twiMode,r20
 206:/home/arhat109/Arduino/libraries/Arhat/arhat_twi2.h ****     TWCR = _BV(TWEN)|_BV(TWIE)|((mode&TWI_IS_SLAVE)?_BV(TWEA):0); // module, acks, and interrupt is
 119               		.loc 1 206 0
 120 001a 40FF      		sbrs r20,0
 121 001c 00C0      		rjmp .L9
 122 001e 85E4      		ldi r24,lo8(69)
 123 0020 00C0      		rjmp .L8
 124               	.L9:
 125 0022 85E0      		ldi r24,lo8(5)
 126               	.L8:
 127               		.loc 1 206 0 is_stmt 0 discriminator 3
 128 0024 8093 BC00 		sts 188,r24
 129               	/* epilogue start */
 207:/home/arhat109/Arduino/libraries/Arhat/arhat_twi2.h **** }
 130               		.loc 1 207 0 is_stmt 1 discriminator 3
 131 0028 0F90      		pop __tmp_reg__
 132 002a DF91      		pop r29
 133 002c CF91      		pop r28
 134 002e 0895      		ret
 135               		.cfi_endproc
GAS LISTING /tmp/ccFP0NC0.s 			page 7


 136               	.LFE103:
 137               		.size	twiSetup, .-twiSetup
 138               		.section	.text.twiSendStop,"ax",@progbits
 139               	.global	twiSendStop
 140               		.type	twiSendStop, @function
 141               	twiSendStop:
 142               	.LFB104:
 208:/home/arhat109/Arduino/libraries/Arhat/arhat_twi2.h **** 
 209:/home/arhat109/Arduino/libraries/Arhat/arhat_twi2.h **** /**
 210:/home/arhat109/Arduino/libraries/Arhat/arhat_twi2.h ****  * for ISR(TWI): control restart conditions in all modes:
 211:/home/arhat109/Arduino/libraries/Arhat/arhat_twi2.h ****  *
 212:/home/arhat109/Arduino/libraries/Arhat/arhat_twi2.h ****  * 1. –û—Å–≤–æ–±–æ–∂–¥–∞—Ç—å —à–∏–Ω—É, –∏–ª–∏ –Ω–∞–¥–æ –µ—â—ë (–Ω–∞–ø—Ä. –ø—Ä–∏–µ–º –ø–æ—Å–ª–µ –ø–µ
 213:/home/arhat109/Arduino/libraries/Arhat/arhat_twi2.h ****  * –¥–∞: –°–µ–∞–Ω—Å –∑–∞–≤–µ—Ä—à–µ–Ω. –ñ–¥–µ–º –ø—Ä—è–º–æ —Ç—É—Ç –ø—Ä–æ—Ö–æ–∂–¥–µ–Ω–∏—è —Å—Ç–æ–ø–∞!
 214:/home/arhat109/Arduino/libraries/Arhat/arhat_twi2.h ****  * –Ω–µ—Ç, —Ä–µ—Å—Ç–∞—Ä—Ç:
 215:/home/arhat109/Arduino/libraries/Arhat/arhat_twi2.h ****  * .. –µ—Å—Ç—å –•—É–∫? –ø—Ä–æ—Ü–µ–¥—É—Ä–∞ –ø–æ–¥–≥–æ—Ç–æ–≤–∫–∏ —Å–ª–µ–¥. –ø–æ—Å—ã–ª–∫–∏: —É–∫–∞–∑–∞
 216:/home/arhat109/Arduino/libraries/Arhat/arhat_twi2.h ****  * .. –∞ –Ω–µ—Ç –•—É–∫–∞! –¢–∏–ø–æ–≤–æ–π —Ä–µ–∂–∏–º "—á—Ç–µ–Ω–∏–µ –ø–æ—Å–ª–µ –∑–∞–ø–∏—Å–∏"
 217:/home/arhat109/Arduino/libraries/Arhat/arhat_twi2.h ****  * –≤ –ª—é–±–æ–º —Å–ª—É—á–∞–µ –æ—Ç–ø—Ä–∞–≤–ª—è–µ–º restart
 218:/home/arhat109/Arduino/libraries/Arhat/arhat_twi2.h ****  *
 219:/home/arhat109/Arduino/libraries/Arhat/arhat_twi2.h ****  * @return command for TWCR
 220:/home/arhat109/Arduino/libraries/Arhat/arhat_twi2.h ****  *//*
 221:/home/arhat109/Arduino/libraries/Arhat/arhat_twi2.h **** #define twiSendStop(_md, _cr)                                \
 222:/home/arhat109/Arduino/libraries/Arhat/arhat_twi2.h **** {                                                            \
 223:/home/arhat109/Arduino/libraries/Arhat/arhat_twi2.h ****     if (_md & TWI_SEND_STOP)                                 \
 224:/home/arhat109/Arduino/libraries/Arhat/arhat_twi2.h ****     {                                                        \
 225:/home/arhat109/Arduino/libraries/Arhat/arhat_twi2.h ****         TWCR = _BV(TWSTO)|twiReleaseBus(_md & TWI_IS_SLAVE); \
 226:/home/arhat109/Arduino/libraries/Arhat/arhat_twi2.h ****         while(TWCR & _BV(TWSTO));                            \
 227:/home/arhat109/Arduino/libraries/Arhat/arhat_twi2.h ****         twiMode |= TWI_READY;                                \
 228:/home/arhat109/Arduino/libraries/Arhat/arhat_twi2.h ****         return;                                              \
 229:/home/arhat109/Arduino/libraries/Arhat/arhat_twi2.h ****     }else{                                                   \
 230:/home/arhat109/Arduino/libraries/Arhat/arhat_twi2.h ****         if( twiHookRestart ){                                \
 231:/home/arhat109/Arduino/libraries/Arhat/arhat_twi2.h ****             twiHookRestart();                                \
 232:/home/arhat109/Arduino/libraries/Arhat/arhat_twi2.h ****         } else {                                             \
 233:/home/arhat109/Arduino/libraries/Arhat/arhat_twi2.h ****             twiSLARW |= TWI_READ;                            \
 234:/home/arhat109/Arduino/libraries/Arhat/arhat_twi2.h ****         }                                                    \
 235:/home/arhat109/Arduino/libraries/Arhat/arhat_twi2.h ****         _cr = twiStart(_md & TWI_IS_SLAVE);                  \
 236:/home/arhat109/Arduino/libraries/Arhat/arhat_twi2.h ****     }                                                        \
 237:/home/arhat109/Arduino/libraries/Arhat/arhat_twi2.h **** }
 238:/home/arhat109/Arduino/libraries/Arhat/arhat_twi2.h **** */
 239:/home/arhat109/Arduino/libraries/Arhat/arhat_twi2.h **** void twiSendStop(uint8_t _md)
 240:/home/arhat109/Arduino/libraries/Arhat/arhat_twi2.h **** {
 143               		.loc 1 240 0
 144               		.cfi_startproc
 145               	.LVL11:
 146 0000 CF93      		push r28
 147               	.LCFI4:
 148               		.cfi_def_cfa_offset 4
 149               		.cfi_offset 28, -3
 150               	/* prologue: function */
 151               	/* frame size = 0 */
 152               	/* stack size = 1 */
 153               	.L__stack_usage = 1
 154 0002 C82F      		mov r28,r24
 155 0004 C170      		andi r28,lo8(1)
 241:/home/arhat109/Arduino/libraries/Arhat/arhat_twi2.h ****     if (_md & TWI_SEND_STOP)
 156               		.loc 1 241 0
 157 0006 81FF      		sbrs r24,1
 158 0008 00C0      		rjmp .L11
GAS LISTING /tmp/ccFP0NC0.s 			page 8


 242:/home/arhat109/Arduino/libraries/Arhat/arhat_twi2.h ****     {
 243:/home/arhat109/Arduino/libraries/Arhat/arhat_twi2.h ****         TWCR = _BV(TWSTO)|twiReleaseBus(_md & TWI_IS_SLAVE);
 159               		.loc 1 243 0
 160 000a CC23      		tst r28
 161 000c 01F0      		breq .L19
 162 000e 85ED      		ldi r24,lo8(-43)
 163               	.LVL12:
 164 0010 00C0      		rjmp .L12
 165               	.LVL13:
 166               	.L19:
 167 0012 84E9      		ldi r24,lo8(-108)
 168               	.LVL14:
 169               	.L12:
 170               		.loc 1 243 0 is_stmt 0 discriminator 3
 171 0014 8093 BC00 		sts 188,r24
 172               	.L14:
 244:/home/arhat109/Arduino/libraries/Arhat/arhat_twi2.h ****         while(TWCR & _BV(TWSTO));
 173               		.loc 1 244 0 is_stmt 1 discriminator 1
 174 0018 8091 BC00 		lds r24,188
 175 001c 84FD      		sbrc r24,4
 176 001e 00C0      		rjmp .L14
 245:/home/arhat109/Arduino/libraries/Arhat/arhat_twi2.h ****         twiMode |= TWI_READY;
 177               		.loc 1 245 0
 178 0020 8091 0000 		lds r24,twiMode
 179 0024 8460      		ori r24,lo8(4)
 180 0026 8093 0000 		sts twiMode,r24
 181 002a 00C0      		rjmp .L10
 182               	.LVL15:
 183               	.L11:
 184               	.LBB5:
 185               	.LBB6:
 246:/home/arhat109/Arduino/libraries/Arhat/arhat_twi2.h ****     }else{
 247:/home/arhat109/Arduino/libraries/Arhat/arhat_twi2.h ****         if( twiHookRestart ){
 186               		.loc 1 247 0
 187 002c E091 0000 		lds r30,twiHookRestart
 188 0030 F091 0000 		lds r31,twiHookRestart+1
 189 0034 3097      		sbiw r30,0
 190 0036 01F0      		breq .L16
 248:/home/arhat109/Arduino/libraries/Arhat/arhat_twi2.h ****             twiHookRestart();
 191               		.loc 1 248 0
 192 0038 1995      		eicall
 193               	.LVL16:
 194 003a 00C0      		rjmp .L17
 195               	.LVL17:
 196               	.L16:
 249:/home/arhat109/Arduino/libraries/Arhat/arhat_twi2.h ****         } else {
 250:/home/arhat109/Arduino/libraries/Arhat/arhat_twi2.h ****             twiSLARW |= TWI_READ;
 197               		.loc 1 250 0
 198 003c 8091 0000 		lds r24,twiSLARW
 199               	.LVL18:
 200 0040 8160      		ori r24,lo8(1)
 201 0042 8093 0000 		sts twiSLARW,r24
 202               	.L17:
 251:/home/arhat109/Arduino/libraries/Arhat/arhat_twi2.h ****         }
 252:/home/arhat109/Arduino/libraries/Arhat/arhat_twi2.h ****         TWCR = twiStart(_md & TWI_IS_SLAVE);
 203               		.loc 1 252 0
 204 0046 CC23      		tst r28
GAS LISTING /tmp/ccFP0NC0.s 			page 9


 205 0048 01F0      		breq .L20
 206 004a 85EE      		ldi r24,lo8(-27)
 207 004c 00C0      		rjmp .L18
 208               	.L20:
 209 004e 85EA      		ldi r24,lo8(-91)
 210               	.L18:
 211 0050 8093 BC00 		sts 188,r24
 212               	.LVL19:
 213               	.L10:
 214               	/* epilogue start */
 215               	.LBE6:
 216               	.LBE5:
 253:/home/arhat109/Arduino/libraries/Arhat/arhat_twi2.h ****     }
 254:/home/arhat109/Arduino/libraries/Arhat/arhat_twi2.h **** }
 217               		.loc 1 254 0
 218 0054 CF91      		pop r28
 219 0056 0895      		ret
 220               		.cfi_endproc
 221               	.LFE104:
 222               		.size	twiSendStop, .-twiSendStop
 223               		.section	.text.__vector_39,"ax",@progbits
 224               	.global	__vector_39
 225               		.type	__vector_39, @function
 226               	__vector_39:
 227               	.LFB105:
 255:/home/arhat109/Arduino/libraries/Arhat/arhat_twi2.h **** 
 256:/home/arhat109/Arduino/libraries/Arhat/arhat_twi2.h **** /**
 257:/home/arhat109/Arduino/libraries/Arhat/arhat_twi2.h ****  * ISR for TWI interface: realised master and slave modes
 258:/home/arhat109/Arduino/libraries/Arhat/arhat_twi2.h ****  * ------------------------------------------------------
 259:/home/arhat109/Arduino/libraries/Arhat/arhat_twi2.h ****  */
 260:/home/arhat109/Arduino/libraries/Arhat/arhat_twi2.h **** ISR(TWI_vect)
 261:/home/arhat109/Arduino/libraries/Arhat/arhat_twi2.h **** {
 228               		.loc 1 261 0
 229               		.cfi_startproc
 230 0000 1F92      		push r1
 231               	.LCFI5:
 232               		.cfi_def_cfa_offset 4
 233               		.cfi_offset 1, -3
 234 0002 0F92      		push r0
 235               	.LCFI6:
 236               		.cfi_def_cfa_offset 5
 237               		.cfi_offset 0, -4
 238 0004 0FB6      		in r0,__SREG__
 239 0006 0F92      		push r0
 240 0008 1124      		clr __zero_reg__
 241 000a 0BB6      		in r0,__RAMPZ__
 242 000c 0F92      		push r0
 243 000e 2F93      		push r18
 244               	.LCFI7:
 245               		.cfi_def_cfa_offset 6
 246               		.cfi_offset 18, -5
 247 0010 3F93      		push r19
 248               	.LCFI8:
 249               		.cfi_def_cfa_offset 7
 250               		.cfi_offset 19, -6
 251 0012 4F93      		push r20
 252               	.LCFI9:
GAS LISTING /tmp/ccFP0NC0.s 			page 10


 253               		.cfi_def_cfa_offset 8
 254               		.cfi_offset 20, -7
 255 0014 5F93      		push r21
 256               	.LCFI10:
 257               		.cfi_def_cfa_offset 9
 258               		.cfi_offset 21, -8
 259 0016 6F93      		push r22
 260               	.LCFI11:
 261               		.cfi_def_cfa_offset 10
 262               		.cfi_offset 22, -9
 263 0018 7F93      		push r23
 264               	.LCFI12:
 265               		.cfi_def_cfa_offset 11
 266               		.cfi_offset 23, -10
 267 001a 8F93      		push r24
 268               	.LCFI13:
 269               		.cfi_def_cfa_offset 12
 270               		.cfi_offset 24, -11
 271 001c 9F93      		push r25
 272               	.LCFI14:
 273               		.cfi_def_cfa_offset 13
 274               		.cfi_offset 25, -12
 275 001e AF93      		push r26
 276               	.LCFI15:
 277               		.cfi_def_cfa_offset 14
 278               		.cfi_offset 26, -13
 279 0020 BF93      		push r27
 280               	.LCFI16:
 281               		.cfi_def_cfa_offset 15
 282               		.cfi_offset 27, -14
 283 0022 EF93      		push r30
 284               	.LCFI17:
 285               		.cfi_def_cfa_offset 16
 286               		.cfi_offset 30, -15
 287 0024 FF93      		push r31
 288               	.LCFI18:
 289               		.cfi_def_cfa_offset 17
 290               		.cfi_offset 31, -16
 291               	/* prologue: Signal */
 292               	/* frame size = 0 */
 293               	/* stack size = 16 */
 294               	.L__stack_usage = 16
 295               	.LBB7:
 262:/home/arhat109/Arduino/libraries/Arhat/arhat_twi2.h ****     uint8_t _cr;
 263:/home/arhat109/Arduino/libraries/Arhat/arhat_twi2.h ****     uint8_t _md = twiMode;
 296               		.loc 1 263 0
 297 0026 8091 0000 		lds r24,twiMode
 298               	.LVL20:
 264:/home/arhat109/Arduino/libraries/Arhat/arhat_twi2.h ****     uint8_t _st = twiState=TWI_STATUS;
 299               		.loc 1 264 0
 300 002a 2091 B900 		lds r18,185
 301 002e 922F      		mov r25,r18
 302 0030 987F      		andi r25,lo8(-8)
 303 0032 9093 0000 		sts twiState,r25
 304               	.LVL21:
 265:/home/arhat109/Arduino/libraries/Arhat/arhat_twi2.h **** 
 266:/home/arhat109/Arduino/libraries/Arhat/arhat_twi2.h **** #if defined(TWI_ON) && ((TWI_ON & TWI_IS_SLAVE_TX)||(TWI_ON & TWI_IS_SLAVE_RX))
GAS LISTING /tmp/ccFP0NC0.s 			page 11


 267:/home/arhat109/Arduino/libraries/Arhat/arhat_twi2.h ****     if( _st >= TWI_SR_SLA_ACK )
 305               		.loc 1 267 0
 306 0036 9036      		cpi r25,lo8(96)
 307 0038 00F0      		brlo .L22
 268:/home/arhat109/Arduino/libraries/Arhat/arhat_twi2.h ****     {
 269:/home/arhat109/Arduino/libraries/Arhat/arhat_twi2.h **** #if (TWI_ON & TWI_IS_SLAVE_TX)
 270:/home/arhat109/Arduino/libraries/Arhat/arhat_twi2.h ****         if( (_st == TWI_ST_DATA_NACK) || (_st == TWI_ST_LAST_DATA) )
 308               		.loc 1 270 0
 309 003a 322F      		mov r19,r18
 310 003c 307F      		andi r19,lo8(-16)
 311 003e 303C      		cpi r19,lo8(-64)
 312 0040 01F4      		brne .L23
 271:/home/arhat109/Arduino/libraries/Arhat/arhat_twi2.h ****         {
 272:/home/arhat109/Arduino/libraries/Arhat/arhat_twi2.h ****             // ST: –ë—ã–ª –ø–æ—Å–ª–µ–¥–Ω–∏–π –±–∞–π—Ç, –º–∞—Å—Ç–µ—Ä –Ω–∞–µ–ª—Å—è ..
 273:/home/arhat109/Arduino/libraries/Arhat/arhat_twi2.h ****             // ST: –ë—ã–ª –Ω–∞—à –ø–æ—Å–ª–µ–¥–Ω–∏–π –±–∞–π—Ç: –ø—Ä–µ–¥—É–ø—Ä–µ–∂–¥–∞–ª–∏ –º–∞—Å—Ç–µ
 274:/home/arhat109/Arduino/libraries/Arhat/arhat_twi2.h ****             twiSlaveWriter();                                   // –•—É–∫ - –æ–±—è–∑–∞—Ç–µ–ª–µ–Ω!
 313               		.loc 1 274 0
 314 0042 E091 0000 		lds r30,twiSlaveWriter
 315 0046 F091 0000 		lds r31,twiSlaveWriter+1
 316 004a 00C0      		rjmp .L73
 317               	.L23:
 275:/home/arhat109/Arduino/libraries/Arhat/arhat_twi2.h ****             _md=twiMode;                                        // –≤–æ–∑–º–æ–∂–Ω–æ –∏–∑–º–µ–Ω–µ–Ω–
 276:/home/arhat109/Arduino/libraries/Arhat/arhat_twi2.h ****             twiSendStop(_md); return;
 277:/home/arhat109/Arduino/libraries/Arhat/arhat_twi2.h ****         }else{
 278:/home/arhat109/Arduino/libraries/Arhat/arhat_twi2.h ****             if( (_st == TWI_ST_ARB_LOST_SLA_ACK) || (_st == TWI_ST_SLA_ACK || _st == TWI_ST_DATA_AC
 318               		.loc 1 278 0
 319 004c 903B      		cpi r25,lo8(-80)
 320 004e 01F0      		breq .L25
 321               		.loc 1 278 0 is_stmt 0 discriminator 1
 322 0050 287E      		andi r18,lo8(-24)
 323 0052 283A      		cpi r18,lo8(-88)
 324 0054 01F4      		brne .L26
 325               	.L25:
 279:/home/arhat109/Arduino/libraries/Arhat/arhat_twi2.h ****             {
 280:/home/arhat109/Arduino/libraries/Arhat/arhat_twi2.h ****                 // ST: –ú–æ–µ–≥–æ –º–∞—Å—Ç–µ—Ä–∞ –∑–∞—Ç–∫–Ω—É–ª–∏ –∏ –ø—Ä–æ—Å—è—Ç –¥–∞–Ω–Ω—ã–µ ..
 281:/home/arhat109/Arduino/libraries/Arhat/arhat_twi2.h ****                 // ST: –ú–æ–π –∞–¥—Ä–µ—Å, –Ω–∞—á–∏–Ω–∞–µ–º ..
 282:/home/arhat109/Arduino/libraries/Arhat/arhat_twi2.h ****                 // ST: –û—Ç–ø—Ä–∞–≤–ª–µ–Ω–æ —É—Å–ø–µ—à–Ω–æ, –ø—Ä–æ–¥–æ–ª–∂–∞–µ–º ..
 283:/home/arhat109/Arduino/libraries/Arhat/arhat_twi2.h ****                 TWDR = *twiST_Ptr++;
 326               		.loc 1 283 0 is_stmt 1
 327 0056 E091 0000 		lds r30,twiST_Ptr
 328 005a F091 0000 		lds r31,twiST_Ptr+1
 329 005e 9F01      		movw r18,r30
 330 0060 2F5F      		subi r18,-1
 331 0062 3F4F      		sbci r19,-1
 332 0064 3093 0000 		sts twiST_Ptr+1,r19
 333 0068 2093 0000 		sts twiST_Ptr,r18
 334 006c 9081      		ld r25,Z
 335               	.LVL22:
 336 006e 9093 BB00 		sts 187,r25
 337               	.LVL23:
 284:/home/arhat109/Arduino/libraries/Arhat/arhat_twi2.h ****                 _cr = twiReply(--twiST_Count);
 338               		.loc 1 284 0
 339 0072 9091 0000 		lds r25,twiST_Count
 340 0076 9150      		subi r25,lo8(-(-1))
 341 0078 9093 0000 		sts twiST_Count,r25
 342 007c 00C0      		rjmp .L76
 343               	.LVL24:
GAS LISTING /tmp/ccFP0NC0.s 			page 12


 344               	.L26:
 285:/home/arhat109/Arduino/libraries/Arhat/arhat_twi2.h ****             }else{
 286:/home/arhat109/Arduino/libraries/Arhat/arhat_twi2.h **** #endif // TWI_ON::TWI_IS_SLAVE_TX
 287:/home/arhat109/Arduino/libraries/Arhat/arhat_twi2.h **** #if (TWI_ON & TWI_IS_SLAVE_RX)
 288:/home/arhat109/Arduino/libraries/Arhat/arhat_twi2.h ****                 if( (_st == TWI_SR_GCALL_DATA_NACK) || (_st == TWI_SR_DATA_NACK) || (_st == TWI_SR_
 345               		.loc 1 288 0 discriminator 1
 346 007e 2838      		cpi r18,lo8(-120)
 347 0080 01F0      		breq .L28
 348 0082 903A      		cpi r25,lo8(-96)
 349 0084 01F4      		brne .L71
 350 0086 00C0      		rjmp .L29
 351               	.L28:
 289:/home/arhat109/Arduino/libraries/Arhat/arhat_twi2.h ****                 {
 290:/home/arhat109/Arduino/libraries/Arhat/arhat_twi2.h ****                     if( (_st == TWI_SR_GCALL_DATA_NACK) || (_st == TWI_SR_DATA_NACK) )
 291:/home/arhat109/Arduino/libraries/Arhat/arhat_twi2.h ****                     {
 292:/home/arhat109/Arduino/libraries/Arhat/arhat_twi2.h ****                         // SR: –£–ü–°. GCall - —Ç—É–¥–∞ –∂–µ.
 293:/home/arhat109/Arduino/libraries/Arhat/arhat_twi2.h ****                         // SR: –£–ü–°. –ü–æ–ª—É—á–µ–Ω –±–∞–π—Ç, –º–∞—Å—Ç–µ—Ä—É —É–∂–µ –±—ã–ª –æ—Ç–ø
 294:/home/arhat109/Arduino/libraries/Arhat/arhat_twi2.h ****                         *twiRX_Ptr = TWDR;
 352               		.loc 1 294 0
 353 0088 E091 0000 		lds r30,twiRX_Ptr
 354 008c F091 0000 		lds r31,twiRX_Ptr+1
 355 0090 8091 BB00 		lds r24,187
 356               	.LVL25:
 357 0094 8083      		st Z,r24
 358               	.L29:
 295:/home/arhat109/Arduino/libraries/Arhat/arhat_twi2.h ****                     }
 296:/home/arhat109/Arduino/libraries/Arhat/arhat_twi2.h ****                     // SR: –û–±–Ω–∞—Ä—É–∂–µ–Ω stop –∏–ª–∏ restart –≤ –ø—Ä–æ—Ü–µ—Å—Å–µ –ø—Ä–∏–µ–º–∞ 
 297:/home/arhat109/Arduino/libraries/Arhat/arhat_twi2.h ****                     twiSlaveReader();                           // –•—É–∫ –æ–±—è–∑–∞—Ç–µ–ª–µ–Ω! —ç—
 359               		.loc 1 297 0
 360 0096 E091 0000 		lds r30,twiSlaveReader
 361 009a F091 0000 		lds r31,twiSlaveReader+1
 362 009e 00C0      		rjmp .L73
 363               	.LVL26:
 364               	.L71:
 298:/home/arhat109/Arduino/libraries/Arhat/arhat_twi2.h ****                     _md=twiMode;                                // –≤–æ–∑–º–æ–∂–Ω–æ –∏–∑–º–µ–Ω–µ–Ω–
 299:/home/arhat109/Arduino/libraries/Arhat/arhat_twi2.h ****                     twiSendStop(_md); return;
 300:/home/arhat109/Arduino/libraries/Arhat/arhat_twi2.h ****                 }else{
 301:/home/arhat109/Arduino/libraries/Arhat/arhat_twi2.h ****                     if( (_st == TWI_SR_GCALL_DATA_ACK) || (_st == TWI_SR_DATA_ACK) )
 365               		.loc 1 301 0 discriminator 1
 366 00a0 2038      		cpi r18,lo8(-128)
 367 00a2 01F0      		breq .+2
 368 00a4 00C0      		rjmp .L41
 369 00a6 00C0      		rjmp .L40
 370               	.L22:
 302:/home/arhat109/Arduino/libraries/Arhat/arhat_twi2.h ****                     {
 303:/home/arhat109/Arduino/libraries/Arhat/arhat_twi2.h ****                         // SR: –ø—Ä–∏—à–µ–ª –±–∞–π—Ç –≤—Å–µ–º - –∞–Ω–∞–ª–æ–≥–∏—á–Ω–æ
 304:/home/arhat109/Arduino/libraries/Arhat/arhat_twi2.h ****                         // SR: –ø—Ä–∏—à–µ–ª –±–∞–π—Ç, –º–æ–∂–Ω–æ –µ—â—ë –ø—Ä–∏–Ω—è—Ç—å
 305:/home/arhat109/Arduino/libraries/Arhat/arhat_twi2.h ****                         *(twiRX_Ptr++) = TWDR;
 306:/home/arhat109/Arduino/libraries/Arhat/arhat_twi2.h ****                     }
 307:/home/arhat109/Arduino/libraries/Arhat/arhat_twi2.h ****                     // TWI_SR_ARB_LOST_SLA_ACK   SR: –ú–∞—Å—Ç–µ—Ä –ø–æ—Ç–µ—Ä—è–ª —à–∏–Ω—É: –Ω–µ—Ç –
 308:/home/arhat109/Arduino/libraries/Arhat/arhat_twi2.h ****                     // TWI_SR_ARB_LOST_GCALL_ACK SR: –í—ã–∑–æ–≤ –≤—Å–µ–º –ø–æ—Ç–µ—Ä—è–ª —à–∏–Ω—É (–
 309:/home/arhat109/Arduino/libraries/Arhat/arhat_twi2.h ****                     // TWI_SR_SLA_ACK            SR: –ê–¥—Ä–µ—Å –ø—Ä–∏–Ω—è—Ç, –µ—â—ë —Ç–æ–ª—å–∫–æ –
 310:/home/arhat109/Arduino/libraries/Arhat/arhat_twi2.h ****                     // TWI_SR_GCALL_ACK          SR: –í—ã–∑–æ–≤ –≤—Å–µ–º –ø—Ä–∏–Ω—è—Ç –æ–Ω–æ –∂–µ
 311:/home/arhat109/Arduino/libraries/Arhat/arhat_twi2.h ****                     _cr = twiReply(--twiRX_Count);              // .. –ø—Ä–∏–Ω—è–ª–∏ –±–∞–π—Ç –∏ –æ
 312:/home/arhat109/Arduino/libraries/Arhat/arhat_twi2.h ****                 }
 313:/home/arhat109/Arduino/libraries/Arhat/arhat_twi2.h **** #endif // TWI_ON::TWI_IS_SLAVE_RX
 314:/home/arhat109/Arduino/libraries/Arhat/arhat_twi2.h **** #if (TWI_ON & TWI_IS_SLAVE_TX)
GAS LISTING /tmp/ccFP0NC0.s 			page 13


 315:/home/arhat109/Arduino/libraries/Arhat/arhat_twi2.h ****             }
 316:/home/arhat109/Arduino/libraries/Arhat/arhat_twi2.h ****         }
 317:/home/arhat109/Arduino/libraries/Arhat/arhat_twi2.h **** #endif // TWI_ON::TWI_IS_SLAVE_TX
 318:/home/arhat109/Arduino/libraries/Arhat/arhat_twi2.h ****     }else{
 319:/home/arhat109/Arduino/libraries/Arhat/arhat_twi2.h **** 
 320:/home/arhat109/Arduino/libraries/Arhat/arhat_twi2.h **** #endif // TWI_ON::TWI_SLAVE..
 321:/home/arhat109/Arduino/libraries/Arhat/arhat_twi2.h **** #if defined(TWI_ON) && (TWI_ON & TWI_MASTER_TX)
 322:/home/arhat109/Arduino/libraries/Arhat/arhat_twi2.h ****         // Master Transmiter or Reciever modes
 323:/home/arhat109/Arduino/libraries/Arhat/arhat_twi2.h ****         if( (_st == TWI_START) || (_st == TWI_REP_START) )
 371               		.loc 1 323 0
 372 00a8 9830      		cpi r25,lo8(8)
 373 00aa 01F0      		breq .L32
 374               		.loc 1 323 0 is_stmt 0 discriminator 1
 375 00ac 9031      		cpi r25,lo8(16)
 376 00ae 01F4      		brne .L33
 377               	.L32:
 324:/home/arhat109/Arduino/libraries/Arhat/arhat_twi2.h ****         {
 325:/home/arhat109/Arduino/libraries/Arhat/arhat_twi2.h ****             // MT,MR:: –ü—Ä–æ—à–ª–∞ –æ—Ç–ø—Ä–∞–≤–∫–∞ —Å—Ç–∞—Ä—Ç–æ–≤–æ–π –ø–æ—Å—ã–ª–∫–∏
 326:/home/arhat109/Arduino/libraries/Arhat/arhat_twi2.h ****             // MT,MR:: –ü—Ä–æ—à–ª–∞ –æ—Ç–ø—Ä–∞–≤–∫–∞ –ø–æ–≤—Ç–æ—Ä–Ω–æ–≥–æ —Å—Ç–∞—Ä—Ç–∞
 327:/home/arhat109/Arduino/libraries/Arhat/arhat_twi2.h ****             TWDR = twiSLARW;
 378               		.loc 1 327 0 is_stmt 1
 379 00b0 9091 0000 		lds r25,twiSLARW
 380               	.LVL27:
 381 00b4 00C0      		rjmp .L74
 382               	.LVL28:
 383               	.L33:
 328:/home/arhat109/Arduino/libraries/Arhat/arhat_twi2.h ****             _cr = twiReply(_md & TWI_IS_SLAVE);
 329:/home/arhat109/Arduino/libraries/Arhat/arhat_twi2.h ****         }else{
 330:/home/arhat109/Arduino/libraries/Arhat/arhat_twi2.h ****             if( (_st == TWI_MT_SLA_NACK) || (_st == TWI_MT_DATA_NACK) )
 384               		.loc 1 330 0
 385 00b6 287E      		andi r18,lo8(-24)
 386 00b8 2032      		cpi r18,lo8(32)
 387 00ba 01F4      		brne .+2
 388 00bc 00C0      		rjmp .L43
 331:/home/arhat109/Arduino/libraries/Arhat/arhat_twi2.h ****             {
 332:/home/arhat109/Arduino/libraries/Arhat/arhat_twi2.h ****                 // TWI_MT_DATA_NACK MT:: –£–ø—Å. data NACK: –ü–æ–ª—É—á–∞—Ç–µ–ª—å –Ω–µ —Ö–æ—Ç–∏—Ç?
 333:/home/arhat109/Arduino/libraries/Arhat/arhat_twi2.h ****                 // TWI_MT_SLA_NACK  MT:: –£–ø—Å. –ü–æ–ª—É—á–∞—Ç–µ–ª—å NACK .. –Ω–µ –æ—Ç–∫–ª–∏–∫–∞–µ
 334:/home/arhat109/Arduino/libraries/Arhat/arhat_twi2.h ****                 twiSendStop(_md); return;
 335:/home/arhat109/Arduino/libraries/Arhat/arhat_twi2.h ****             }
 336:/home/arhat109/Arduino/libraries/Arhat/arhat_twi2.h ****             if( (_st == TWI_MT_SLA_ACK)  || (_st == TWI_MT_DATA_ACK) )
 389               		.loc 1 336 0
 390 00be 9831      		cpi r25,lo8(24)
 391 00c0 01F0      		breq .L36
 392               		.loc 1 336 0 is_stmt 0 discriminator 1
 393 00c2 9832      		cpi r25,lo8(40)
 394 00c4 01F4      		brne .L37
 395               	.L36:
 337:/home/arhat109/Arduino/libraries/Arhat/arhat_twi2.h ****             {
 338:/home/arhat109/Arduino/libraries/Arhat/arhat_twi2.h ****                 // MT: –ê–¥—Ä–µ—Å –ø–æ–ª—É—á–∞—Ç–µ–ª—è –æ—Ç–ø—Ä–∞–≤–ª–µ–Ω —É—Å–ø–µ—à–Ω–æ, –Ω–∞—á–∏–
 339:/home/arhat109/Arduino/libraries/Arhat/arhat_twi2.h ****                 // MT: –ë–∞–π—Ç –¥–∞–Ω–Ω—ã—Ö –æ—Ç–ø—Ä–∞–≤–ª–µ–Ω, –ø—Ä–æ–¥–æ–ª–∂–∞–µ–º
 340:/home/arhat109/Arduino/libraries/Arhat/arhat_twi2.h ****                 if( twiMT_Count-- ){
 396               		.loc 1 340 0 is_stmt 1
 397 00c6 9091 0000 		lds r25,twiMT_Count
 398               	.LVL29:
 399 00ca 2FEF      		ldi r18,lo8(-1)
 400 00cc 290F      		add r18,r25
 401 00ce 2093 0000 		sts twiMT_Count,r18
GAS LISTING /tmp/ccFP0NC0.s 			page 14


 402               	.LVL30:
 403 00d2 9923      		tst r25
 404 00d4 01F4      		brne .+2
 405 00d6 00C0      		rjmp .L43
 341:/home/arhat109/Arduino/libraries/Arhat/arhat_twi2.h ****                     TWDR = *twiMT_Ptr++;
 406               		.loc 1 341 0
 407 00d8 E091 0000 		lds r30,twiMT_Ptr
 408 00dc F091 0000 		lds r31,twiMT_Ptr+1
 409 00e0 9F01      		movw r18,r30
 410 00e2 2F5F      		subi r18,-1
 411 00e4 3F4F      		sbci r19,-1
 412 00e6 3093 0000 		sts twiMT_Ptr+1,r19
 413 00ea 2093 0000 		sts twiMT_Ptr,r18
 414 00ee 9081      		ld r25,Z
 415               	.L74:
 416 00f0 9093 BB00 		sts 187,r25
 342:/home/arhat109/Arduino/libraries/Arhat/arhat_twi2.h ****                     _cr = twiReply(_md & TWI_IS_SLAVE);
 417               		.loc 1 342 0
 418 00f4 80FF      		sbrs r24,0
 419 00f6 00C0      		rjmp .L49
 420 00f8 00C0      		rjmp .L34
 421               	.LVL31:
 422               	.L37:
 343:/home/arhat109/Arduino/libraries/Arhat/arhat_twi2.h ****                 }else{
 344:/home/arhat109/Arduino/libraries/Arhat/arhat_twi2.h ****                     twiSendStop(_md); return;
 345:/home/arhat109/Arduino/libraries/Arhat/arhat_twi2.h ****                 }
 346:/home/arhat109/Arduino/libraries/Arhat/arhat_twi2.h ****             }else{
 347:/home/arhat109/Arduino/libraries/Arhat/arhat_twi2.h **** #endif // TWI_ON::TWI_MASTER_TX
 348:/home/arhat109/Arduino/libraries/Arhat/arhat_twi2.h **** #if defined(TWI_ON) && (TWI_ON & TWI_MASTER_RX)
 349:/home/arhat109/Arduino/libraries/Arhat/arhat_twi2.h ****                 if( _st == TWI_MTR_ARB_LOST )
 423               		.loc 1 349 0
 424 00fa 9833      		cpi r25,lo8(56)
 425 00fc 01F4      		brne .L39
 350:/home/arhat109/Arduino/libraries/Arhat/arhat_twi2.h ****                 {
 351:/home/arhat109/Arduino/libraries/Arhat/arhat_twi2.h ****                     // MT,MR: –£–ø—Å. –ú–∞—Å—Ç–µ—Ä –ø–æ—Ç–µ—Ä—è–ª —à–∏–Ω—É: –æ—Å–≤–æ–±–æ–∂–¥–∞–µ–º 
 352:/home/arhat109/Arduino/libraries/Arhat/arhat_twi2.h ****                     _md |= TWI_READY;
 426               		.loc 1 352 0
 427 00fe 982F      		mov r25,r24
 428               	.LVL32:
 429 0100 9460      		ori r25,lo8(4)
 430               	.LVL33:
 353:/home/arhat109/Arduino/libraries/Arhat/arhat_twi2.h ****                     _cr = twiReleaseBus(_md & TWI_IS_SLAVE);
 431               		.loc 1 353 0
 432 0102 80FF      		sbrs r24,0
 433 0104 00C0      		rjmp .L48
 352:/home/arhat109/Arduino/libraries/Arhat/arhat_twi2.h ****                     _cr = twiReleaseBus(_md & TWI_IS_SLAVE);
 434               		.loc 1 352 0
 435 0106 892F      		mov r24,r25
 436 0108 00C0      		rjmp .L34
 437               	.LVL34:
 438               	.L39:
 354:/home/arhat109/Arduino/libraries/Arhat/arhat_twi2.h ****                 }else{
 355:/home/arhat109/Arduino/libraries/Arhat/arhat_twi2.h ****                     if( (_st == TWI_MR_DATA_ACK) || (_st == TWI_MR_SLA_ACK) )
 439               		.loc 1 355 0
 440 010a 9035      		cpi r25,lo8(80)
 441 010c 01F0      		breq .L40
 442               		.loc 1 355 0 is_stmt 0 discriminator 1
GAS LISTING /tmp/ccFP0NC0.s 			page 15


 443 010e 9034      		cpi r25,lo8(64)
 444 0110 01F4      		brne .L72
 445 0112 00C0      		rjmp .L41
 446               	.L40:
 356:/home/arhat109/Arduino/libraries/Arhat/arhat_twi2.h ****                     {
 357:/home/arhat109/Arduino/libraries/Arhat/arhat_twi2.h ****                         if( _st == TWI_MR_DATA_ACK ){
 358:/home/arhat109/Arduino/libraries/Arhat/arhat_twi2.h ****                             // MR: –±–∞–π—Ç –ø—Ä–∏–Ω—è—Ç, ACK –æ—Ç–ø—Ä–∞–≤–ª–µ–Ω
 359:/home/arhat109/Arduino/libraries/Arhat/arhat_twi2.h ****                             *(twiRX_Ptr++) = TWDR;
 447               		.loc 1 359 0 is_stmt 1
 448 0114 E091 0000 		lds r30,twiRX_Ptr
 449 0118 F091 0000 		lds r31,twiRX_Ptr+1
 450 011c 9F01      		movw r18,r30
 451 011e 2F5F      		subi r18,-1
 452 0120 3F4F      		sbci r19,-1
 453 0122 3093 0000 		sts twiRX_Ptr+1,r19
 454 0126 2093 0000 		sts twiRX_Ptr,r18
 455 012a 9091 BB00 		lds r25,187
 456               	.LVL35:
 457 012e 9083      		st Z,r25
 458               	.LVL36:
 459               	.L41:
 360:/home/arhat109/Arduino/libraries/Arhat/arhat_twi2.h ****                         }
 361:/home/arhat109/Arduino/libraries/Arhat/arhat_twi2.h ****                         // MR: –û—Ç–ø—Ä–∞–≤–∏—Ç–µ–ª—å –Ω–∞–π–¥–µ–Ω, –Ω–∞—á–∏–Ω–∞–µ–º –ø—Ä–∏–µ–º
 362:/home/arhat109/Arduino/libraries/Arhat/arhat_twi2.h ****                         _cr = twiReply( --twiRX_Count );        // .. –ú–æ–∂–Ω–æ –µ—â—ë –ø—Ä–∏–Ω—è—
 460               		.loc 1 362 0
 461 0130 9091 0000 		lds r25,twiRX_Count
 462 0134 9150      		subi r25,lo8(-(-1))
 463 0136 9093 0000 		sts twiRX_Count,r25
 464               	.L76:
 465 013a 9923      		tst r25
 466 013c 01F0      		breq .L49
 467 013e 00C0      		rjmp .L34
 468               	.LVL37:
 469               	.L72:
 363:/home/arhat109/Arduino/libraries/Arhat/arhat_twi2.h ****                     }else{
 364:/home/arhat109/Arduino/libraries/Arhat/arhat_twi2.h ****                         if( _st == TWI_ERROR ) return;
 470               		.loc 1 364 0
 471 0140 9923      		tst r25
 472 0142 01F0      		breq .L21
 365:/home/arhat109/Arduino/libraries/Arhat/arhat_twi2.h ****                         if( _st == TWI_MR_DATA_NACK )
 473               		.loc 1 365 0
 474 0144 9835      		cpi r25,lo8(88)
 475 0146 01F4      		brne .L43
 366:/home/arhat109/Arduino/libraries/Arhat/arhat_twi2.h ****                         {
 367:/home/arhat109/Arduino/libraries/Arhat/arhat_twi2.h ****                             // MR: –£–ø—Å. –ü–æ–ª—É—á–µ–Ω –ø–æ—Å–ª–µ–¥–Ω–∏–π –±–∞–π—Ç –¥–∞–ª—å—à–µ 
 368:/home/arhat109/Arduino/libraries/Arhat/arhat_twi2.h ****                             *twiRX_Ptr = TWDR;
 476               		.loc 1 368 0
 477 0148 E091 0000 		lds r30,twiRX_Ptr
 478 014c F091 0000 		lds r31,twiRX_Ptr+1
 479 0150 8091 BB00 		lds r24,187
 480               	.LVL38:
 481 0154 8083      		st Z,r24
 369:/home/arhat109/Arduino/libraries/Arhat/arhat_twi2.h ****                             if( twiMasterReader ) twiMasterReader();
 482               		.loc 1 369 0
 483 0156 E091 0000 		lds r30,twiMasterReader
 484 015a F091 0000 		lds r31,twiMasterReader+1
 485 015e 3097      		sbiw r30,0
GAS LISTING /tmp/ccFP0NC0.s 			page 16


 486 0160 01F0      		breq .L44
 487               	.L73:
 488               		.loc 1 369 0 is_stmt 0 discriminator 1
 489 0162 1995      		eicall
 490               	.LVL39:
 491               	.L44:
 370:/home/arhat109/Arduino/libraries/Arhat/arhat_twi2.h **** //                            goto TWI_RET_HOOK;
 371:/home/arhat109/Arduino/libraries/Arhat/arhat_twi2.h ****                             _md=twiMode;                        // –≤–æ–∑–º–æ–∂–Ω–æ –∏–∑–º–µ–Ω–µ–Ω–
 492               		.loc 1 371 0 is_stmt 1 discriminator 3
 493 0164 8091 0000 		lds r24,twiMode
 494               	.LVL40:
 495               	.L43:
 372:/home/arhat109/Arduino/libraries/Arhat/arhat_twi2.h ****                         }
 373:/home/arhat109/Arduino/libraries/Arhat/arhat_twi2.h ****                         // All other Master states: stop/restart if need
 374:/home/arhat109/Arduino/libraries/Arhat/arhat_twi2.h ****                         // TWI_MR_SLA_NACK  MR:: –£–ø—Å. –û—Ç–ø—Ä–∞–≤–∏—Ç–µ–ª—å NACK .. –Ω–µ –æ—Ç–∫
 375:/home/arhat109/Arduino/libraries/Arhat/arhat_twi2.h ****                         twiSendStop(_md); return;
 496               		.loc 1 375 0
 497 0168 0E94 0000 		call twiSendStop
 498               	.LVL41:
 499 016c 00C0      		rjmp .L21
 500               	.LVL42:
 501               	.L34:
 328:/home/arhat109/Arduino/libraries/Arhat/arhat_twi2.h ****         }else{
 502               		.loc 1 328 0
 503 016e 95EC      		ldi r25,lo8(-59)
 504 0170 00C0      		rjmp .L27
 505               	.LVL43:
 506               	.L48:
 352:/home/arhat109/Arduino/libraries/Arhat/arhat_twi2.h ****                     _cr = twiReleaseBus(_md & TWI_IS_SLAVE);
 507               		.loc 1 352 0
 508 0172 892F      		mov r24,r25
 353:/home/arhat109/Arduino/libraries/Arhat/arhat_twi2.h ****                 }else{
 509               		.loc 1 353 0
 510 0174 94E8      		ldi r25,lo8(-124)
 511               	.LVL44:
 512 0176 00C0      		rjmp .L27
 513               	.LVL45:
 514               	.L49:
 362:/home/arhat109/Arduino/libraries/Arhat/arhat_twi2.h ****                     }else{
 515               		.loc 1 362 0
 516 0178 95E8      		ldi r25,lo8(-123)
 517               	.L27:
 518               	.LVL46:
 376:/home/arhat109/Arduino/libraries/Arhat/arhat_twi2.h ****                     }
 377:/home/arhat109/Arduino/libraries/Arhat/arhat_twi2.h ****                 }
 378:/home/arhat109/Arduino/libraries/Arhat/arhat_twi2.h **** #endif // TWI_ON::TWI_MASTER_RX
 379:/home/arhat109/Arduino/libraries/Arhat/arhat_twi2.h **** #if defined(TWI_ON) && (TWI_ON&TWI_MASTER_TX)
 380:/home/arhat109/Arduino/libraries/Arhat/arhat_twi2.h ****             }
 381:/home/arhat109/Arduino/libraries/Arhat/arhat_twi2.h ****         }
 382:/home/arhat109/Arduino/libraries/Arhat/arhat_twi2.h **** #endif // TWI_ON::TWI_MASTER_TX
 383:/home/arhat109/Arduino/libraries/Arhat/arhat_twi2.h **** #if defined(TWI_ON) && ((TWI_ON & TWI_IS_SLAVE_TX)||(TWI_ON & TWI_IS_SLAVE_RX))
 384:/home/arhat109/Arduino/libraries/Arhat/arhat_twi2.h ****     }
 385:/home/arhat109/Arduino/libraries/Arhat/arhat_twi2.h **** #endif // TWI_SLAVE_ON
 386:/home/arhat109/Arduino/libraries/Arhat/arhat_twi2.h ****     twiMode = _md;
 519               		.loc 1 386 0
 520 017a 8093 0000 		sts twiMode,r24
 387:/home/arhat109/Arduino/libraries/Arhat/arhat_twi2.h ****     TWCR = _cr;
GAS LISTING /tmp/ccFP0NC0.s 			page 17


 521               		.loc 1 387 0
 522 017e 9093 BC00 		sts 188,r25
 523               	.LVL47:
 524               	.L21:
 525               	/* epilogue start */
 526               	.LBE7:
 388:/home/arhat109/Arduino/libraries/Arhat/arhat_twi2.h **** } //end ISR()
 527               		.loc 1 388 0
 528 0182 FF91      		pop r31
 529 0184 EF91      		pop r30
 530 0186 BF91      		pop r27
 531 0188 AF91      		pop r26
 532 018a 9F91      		pop r25
 533 018c 8F91      		pop r24
 534 018e 7F91      		pop r23
 535 0190 6F91      		pop r22
 536 0192 5F91      		pop r21
 537 0194 4F91      		pop r20
 538 0196 3F91      		pop r19
 539 0198 2F91      		pop r18
 540 019a 0F90      		pop r0
 541 019c 0BBE      		out __RAMPZ__,r0
 542 019e 0F90      		pop r0
 543 01a0 0FBE      		out __SREG__,r0
 544 01a2 0F90      		pop r0
 545 01a4 1F90      		pop r1
 546 01a6 1895      		reti
 547               		.cfi_endproc
 548               	.LFE105:
 549               		.size	__vector_39, .-__vector_39
 550               		.section	.text._twiStartTo,"ax",@progbits
 551               	.global	_twiStartTo
 552               		.type	_twiStartTo, @function
 553               	_twiStartTo:
 554               	.LFB106:
 389:/home/arhat109/Arduino/libraries/Arhat/arhat_twi2.h **** 
 390:/home/arhat109/Arduino/libraries/Arhat/arhat_twi2.h **** // -------------------------              (PROTECTED)             ------------------------- //
 391:/home/arhat109/Arduino/libraries/Arhat/arhat_twi2.h **** // –í–Ω—É—Ç—Ä–µ–Ω–Ω–∏–µ –º–µ—Ç–æ–¥—ã –∏–Ω—Ç–µ—Ä—Ñ–µ–π—Å–∞, –º–æ–≥—É—Ç –ø—Ä–∏–≥–æ–¥–∏—Ç—Å—è –¥–ª—è —
 392:/home/arhat109/Arduino/libraries/Arhat/arhat_twi2.h **** // ---------------------------------------------------------------------------------------- //
 393:/home/arhat109/Arduino/libraries/Arhat/arhat_twi2.h **** 
 394:/home/arhat109/Arduino/libraries/Arhat/arhat_twi2.h **** /**
 395:/home/arhat109/Arduino/libraries/Arhat/arhat_twi2.h ****  * INTERNAL:: –ü—Ä–æ—Å—Ç–∞—è –ø–µ—Ä–µ–¥–∞—á–∞. –ó–∞–ø–∏—Å—å –∞–¥—Ä–µ—Å–∞ —Å–æ–±–µ—Å–µ–¥–Ω–∏–∫–∞ –∏ 
 396:/home/arhat109/Arduino/libraries/Arhat/arhat_twi2.h ****  *
 397:/home/arhat109/Arduino/libraries/Arhat/arhat_twi2.h ****  * @see twiWrite(), twiRead()
 398:/home/arhat109/Arduino/libraries/Arhat/arhat_twi2.h ****  */
 399:/home/arhat109/Arduino/libraries/Arhat/arhat_twi2.h **** void _twiStartTo(uint8_t address)
 400:/home/arhat109/Arduino/libraries/Arhat/arhat_twi2.h **** {
 555               		.loc 1 400 0
 556               		.cfi_startproc
 557               	.LVL48:
 558               	/* prologue: function */
 559               	/* frame size = 0 */
 560               	/* stack size = 0 */
 561               	.L__stack_usage = 0
 401:/home/arhat109/Arduino/libraries/Arhat/arhat_twi2.h ****     twiSLARW = address;                                 // –†–µ–∂–∏–º –ø–æ—Å—Ç–∞–≤–ª—è–µ—Ç—Å—è –≤–º
 562               		.loc 1 401 0
 563 0000 8093 0000 		sts twiSLARW,r24
GAS LISTING /tmp/ccFP0NC0.s 			page 18


 402:/home/arhat109/Arduino/libraries/Arhat/arhat_twi2.h ****     twiMode |= TWI_SEND_STOP;                           // —Ç–æ–ª—å–∫–æ 1 –±–∏—Ç! –ú–æ–≥–ª–∏ –±—ã—Ç
 564               		.loc 1 402 0
 565 0004 8091 0000 		lds r24,twiMode
 566               	.LVL49:
 567 0008 8260      		ori r24,lo8(2)
 568 000a 8093 0000 		sts twiMode,r24
 569               	.LVL50:
 403:/home/arhat109/Arduino/libraries/Arhat/arhat_twi2.h ****     TWCR = twiStart(twiMode & TWI_IS_SLAVE);
 570               		.loc 1 403 0
 571 000e 8091 0000 		lds r24,twiMode
 572 0012 80FF      		sbrs r24,0
 573 0014 00C0      		rjmp .L80
 574 0016 85EE      		ldi r24,lo8(-27)
 575 0018 00C0      		rjmp .L79
 576               	.L80:
 577 001a 85EA      		ldi r24,lo8(-91)
 578               	.L79:
 579               		.loc 1 403 0 is_stmt 0 discriminator 3
 580 001c 8093 BC00 		sts 188,r24
 581 0020 0895      		ret
 582               		.cfi_endproc
 583               	.LFE106:
 584               		.size	_twiStartTo, .-_twiStartTo
 585               		.section	.text._twiStartRe,"ax",@progbits
 586               	.global	_twiStartRe
 587               		.type	_twiStartRe, @function
 588               	_twiStartRe:
 589               	.LFB107:
 404:/home/arhat109/Arduino/libraries/Arhat/arhat_twi2.h **** }
 405:/home/arhat109/Arduino/libraries/Arhat/arhat_twi2.h **** 
 406:/home/arhat109/Arduino/libraries/Arhat/arhat_twi2.h **** /**
 407:/home/arhat109/Arduino/libraries/Arhat/arhat_twi2.h ****  * INTERNAL:: –ü–µ—Ä–µ–¥–∞—á–∞ —Å —Ä–µ—Å—Ç–∞—Ä—Ç–æ–º. –ó–∞–ø–∏—Å—å –∞–¥—Ä–µ—Å–∞ —Å–æ–±–µ—Å–µ–¥–Ω–∏–
 408:/home/arhat109/Arduino/libraries/Arhat/arhat_twi2.h ****  *
 409:/home/arhat109/Arduino/libraries/Arhat/arhat_twi2.h ****  * @see twiWrite(), twiRead()
 410:/home/arhat109/Arduino/libraries/Arhat/arhat_twi2.h ****  */
 411:/home/arhat109/Arduino/libraries/Arhat/arhat_twi2.h **** void _twiStartRe(uint8_t address)
 412:/home/arhat109/Arduino/libraries/Arhat/arhat_twi2.h **** {
 590               		.loc 1 412 0 is_stmt 1
 591               		.cfi_startproc
 592               	.LVL51:
 593               	/* prologue: function */
 594               	/* frame size = 0 */
 595               	/* stack size = 0 */
 596               	.L__stack_usage = 0
 413:/home/arhat109/Arduino/libraries/Arhat/arhat_twi2.h ****     twiSLARW = address;                                 // –†–µ–∂–∏–º –ø–æ—Å—Ç–∞–≤–ª—è–µ—Ç—Å—è –≤–º
 597               		.loc 1 413 0
 598 0000 8093 0000 		sts twiSLARW,r24
 414:/home/arhat109/Arduino/libraries/Arhat/arhat_twi2.h ****     twiMode &= ~TWI_SEND_STOP;                          // —Ç–æ–ª—å–∫–æ 1 –±–∏—Ç! –ú–æ–≥–ª–∏ –±—ã—Ç
 599               		.loc 1 414 0
 600 0004 8091 0000 		lds r24,twiMode
 601               	.LVL52:
 602 0008 8D7F      		andi r24,lo8(-3)
 603 000a 8093 0000 		sts twiMode,r24
 604               	.LVL53:
 415:/home/arhat109/Arduino/libraries/Arhat/arhat_twi2.h ****     TWCR = twiStart(twiMode & TWI_IS_SLAVE);
 605               		.loc 1 415 0
 606 000e 8091 0000 		lds r24,twiMode
GAS LISTING /tmp/ccFP0NC0.s 			page 19


 607 0012 80FF      		sbrs r24,0
 608 0014 00C0      		rjmp .L83
 609 0016 85EE      		ldi r24,lo8(-27)
 610 0018 00C0      		rjmp .L82
 611               	.L83:
 612 001a 85EA      		ldi r24,lo8(-91)
 613               	.L82:
 614               		.loc 1 415 0 is_stmt 0 discriminator 3
 615 001c 8093 BC00 		sts 188,r24
 616 0020 0895      		ret
 617               		.cfi_endproc
 618               	.LFE107:
 619               		.size	_twiStartRe, .-_twiStartRe
 620               		.section	.text.twiWrite,"ax",@progbits
 621               	.global	twiWrite
 622               		.type	twiWrite, @function
 623               	twiWrite:
 624               	.LFB108:
 416:/home/arhat109/Arduino/libraries/Arhat/arhat_twi2.h **** }
 417:/home/arhat109/Arduino/libraries/Arhat/arhat_twi2.h **** 
 418:/home/arhat109/Arduino/libraries/Arhat/arhat_twi2.h **** #define _twiWaitReady()             {while(!(TWI_READY & twiMode)); twiMode &= ~TWI_READY;}
 419:/home/arhat109/Arduino/libraries/Arhat/arhat_twi2.h **** #define _twiMT_Buffer(data, length) (twiMT_Ptr=(volatile uint8_t *)(data), twiMT_Count=(volatile ui
 420:/home/arhat109/Arduino/libraries/Arhat/arhat_twi2.h **** #define _twiRX_Buffer(data, length) (twiRX_Ptr=(volatile uint8_t *)(data), twiRX_Count=(volatile ui
 421:/home/arhat109/Arduino/libraries/Arhat/arhat_twi2.h **** #define _twiST_Buffer(data, length) (twiST_Ptr=(volatile uint8_t *)(data), twiST_Count=(volatile ui
 422:/home/arhat109/Arduino/libraries/Arhat/arhat_twi2.h **** 
 423:/home/arhat109/Arduino/libraries/Arhat/arhat_twi2.h **** // -------------------------                PUBLIC                ------------------------- //
 424:/home/arhat109/Arduino/libraries/Arhat/arhat_twi2.h **** // ---------------------------------------------------------------------------------------- //
 425:/home/arhat109/Arduino/libraries/Arhat/arhat_twi2.h **** 
 426:/home/arhat109/Arduino/libraries/Arhat/arhat_twi2.h **** /**
 427:/home/arhat109/Arduino/libraries/Arhat/arhat_twi2.h ****  * Master-TX:: –ü–µ—Ä–µ–¥–∞—á–∞ length –±–∞–π—Ç –ø–æ –∞–¥—Ä–µ—Å—É –ø–æ–ª—É—á–∞—Ç–µ–ª—è. –¢–æ–ª—å–∫–
 428:/home/arhat109/Arduino/libraries/Arhat/arhat_twi2.h ****  */
 429:/home/arhat109/Arduino/libraries/Arhat/arhat_twi2.h **** void twiWrite(uint8_t address, const uint8_t * data, uint8_t length)
 430:/home/arhat109/Arduino/libraries/Arhat/arhat_twi2.h **** {
 625               		.loc 1 430 0 is_stmt 1
 626               		.cfi_startproc
 627               	/* prologue: function */
 628               	/* frame size = 0 */
 629               	/* stack size = 0 */
 630               	.L__stack_usage = 0
 631               	.LVL54:
 632               	.L86:
 431:/home/arhat109/Arduino/libraries/Arhat/arhat_twi2.h ****     _twiWaitReady();                                    // –ñ–¥–µ–º –∑–∞–≤–µ—Ä—à–µ–Ω–∏—è –ø—Ä–µ–¥—ã
 633               		.loc 1 431 0 discriminator 1
 634 0000 9091 0000 		lds r25,twiMode
 635 0004 92FF      		sbrs r25,2
 636 0006 00C0      		rjmp .L86
 637               		.loc 1 431 0 is_stmt 0 discriminator 2
 638 0008 9091 0000 		lds r25,twiMode
 639 000c 9B7F      		andi r25,lo8(-5)
 640 000e 9093 0000 		sts twiMode,r25
 432:/home/arhat109/Arduino/libraries/Arhat/arhat_twi2.h ****     _twiMT_Buffer(data, length);
 641               		.loc 1 432 0 is_stmt 1 discriminator 2
 642 0012 7093 0000 		sts twiMT_Ptr+1,r23
 643 0016 6093 0000 		sts twiMT_Ptr,r22
 644 001a 4093 0000 		sts twiMT_Count,r20
 433:/home/arhat109/Arduino/libraries/Arhat/arhat_twi2.h ****     _twiStartTo( (address<<1) | TWI_WRITE );            // –†–µ–∂–∏–º –ø–µ—Ä–µ–¥–∞—á–∏!
 645               		.loc 1 433 0 discriminator 2
GAS LISTING /tmp/ccFP0NC0.s 			page 20


 646 001e 880F      		lsl r24
 647               	.LVL55:
 648 0020 0C94 0000 		jmp _twiStartTo
 649               	.LVL56:
 650               		.cfi_endproc
 651               	.LFE108:
 652               		.size	twiWrite, .-twiWrite
 653               		.section	.text.twiRead,"ax",@progbits
 654               	.global	twiRead
 655               		.type	twiRead, @function
 656               	twiRead:
 657               	.LFB109:
 434:/home/arhat109/Arduino/libraries/Arhat/arhat_twi2.h **** }
 435:/home/arhat109/Arduino/libraries/Arhat/arhat_twi2.h **** 
 436:/home/arhat109/Arduino/libraries/Arhat/arhat_twi2.h **** /**
 437:/home/arhat109/Arduino/libraries/Arhat/arhat_twi2.h ****  * MASTER-RX:: –ü—Ä–∏–µ–º length –±–∞–π—Ç –∏–∑ –∞–¥—Ä–µ—Å–∞ –æ—Ç–ø—Ä–∞–≤–∏—Ç–µ–ª—è. –¢–æ–ª—å–∫–æ –∑
 438:/home/arhat109/Arduino/libraries/Arhat/arhat_twi2.h ****  */
 439:/home/arhat109/Arduino/libraries/Arhat/arhat_twi2.h **** void twiRead(uint8_t address, uint8_t * data, uint8_t length)
 440:/home/arhat109/Arduino/libraries/Arhat/arhat_twi2.h **** {
 658               		.loc 1 440 0
 659               		.cfi_startproc
 660               	/* prologue: function */
 661               	/* frame size = 0 */
 662               	/* stack size = 0 */
 663               	.L__stack_usage = 0
 664               	.LVL57:
 665               	.L89:
 441:/home/arhat109/Arduino/libraries/Arhat/arhat_twi2.h ****     _twiWaitReady();                                    // –ñ–¥–µ–º –∑–∞–≤–µ—Ä—à–µ–Ω–∏—è –ø—Ä–µ–¥—ã
 666               		.loc 1 441 0 discriminator 1
 667 0000 9091 0000 		lds r25,twiMode
 668 0004 92FF      		sbrs r25,2
 669 0006 00C0      		rjmp .L89
 670               		.loc 1 441 0 is_stmt 0 discriminator 2
 671 0008 9091 0000 		lds r25,twiMode
 672 000c 9B7F      		andi r25,lo8(-5)
 673 000e 9093 0000 		sts twiMode,r25
 442:/home/arhat109/Arduino/libraries/Arhat/arhat_twi2.h ****     _twiRX_Buffer(data, length);
 674               		.loc 1 442 0 is_stmt 1 discriminator 2
 675 0012 7093 0000 		sts twiRX_Ptr+1,r23
 676 0016 6093 0000 		sts twiRX_Ptr,r22
 677 001a 4093 0000 		sts twiRX_Count,r20
 443:/home/arhat109/Arduino/libraries/Arhat/arhat_twi2.h ****     _twiStartTo( (address<<1) | TWI_READ );             // –†–µ–∂–∏–º –ø—Ä–∏–µ–º–∞ –¥–∞–Ω–Ω—ã—Ö!
 678               		.loc 1 443 0 discriminator 2
 679 001e 880F      		lsl r24
 680               	.LVL58:
 681 0020 8160      		ori r24,lo8(1)
 682 0022 0C94 0000 		jmp _twiStartTo
 683               	.LVL59:
 684               		.cfi_endproc
 685               	.LFE109:
 686               		.size	twiRead, .-twiRead
 687               		.section	.text.twiRAW,"ax",@progbits
 688               	.global	twiRAW
 689               		.type	twiRAW, @function
 690               	twiRAW:
 691               	.LFB110:
 444:/home/arhat109/Arduino/libraries/Arhat/arhat_twi2.h **** }
GAS LISTING /tmp/ccFP0NC0.s 			page 21


 445:/home/arhat109/Arduino/libraries/Arhat/arhat_twi2.h **** 
 446:/home/arhat109/Arduino/libraries/Arhat/arhat_twi2.h **** /**
 447:/home/arhat109/Arduino/libraries/Arhat/arhat_twi2.h ****  * Master Read-after-Write:: –ß—Ç–µ–Ω–∏–µ –¥–∞–Ω–Ω—ã—Ö –ø–æ—Å–ª–µ –æ—Ç–ø—Ä–∞–≤–∫–∏ –∫–æ–º–∞–Ω–¥—ã. 
 448:/home/arhat109/Arduino/libraries/Arhat/arhat_twi2.h ****  * !!! –ù–µ —Å–æ–≤–º–µ—Å—Ç–∏–º–æ —Å Slave Receive Mode - –±—É—Ñ–µ—Ä –ø—Ä–∏–µ–º–∞ –æ–±—â–∏–π !!!
 449:/home/arhat109/Arduino/libraries/Arhat/arhat_twi2.h ****  */
 450:/home/arhat109/Arduino/libraries/Arhat/arhat_twi2.h **** void twiRAW(uint8_t address                             // –∞–¥—Ä–µ—Å —É—Å—Ç—Ä–æ–π—Å—Ç–≤–∞
 451:/home/arhat109/Arduino/libraries/Arhat/arhat_twi2.h **** , uint8_t* command, uint8_t clength                     // –∫–æ–º–∞–Ω–¥–∞ –∏ –µ—ë –¥–ª–∏–Ω–∞
 452:/home/arhat109/Arduino/libraries/Arhat/arhat_twi2.h **** , uint8_t* data, uint8_t dlength                        // –±—É—Ñ–µ—Ä –ø—Ä–∏–µ–º–∞ –¥–∞–Ω–Ω—ã—Ö –∏ 
 453:/home/arhat109/Arduino/libraries/Arhat/arhat_twi2.h **** ){
 692               		.loc 1 453 0
 693               		.cfi_startproc
 694               	.LVL60:
 695 0000 0F93      		push r16
 696               	.LCFI19:
 697               		.cfi_def_cfa_offset 4
 698               		.cfi_offset 16, -3
 699               	/* prologue: function */
 700               	/* frame size = 0 */
 701               	/* stack size = 1 */
 702               	.L__stack_usage = 1
 703               	.L92:
 454:/home/arhat109/Arduino/libraries/Arhat/arhat_twi2.h ****     _twiWaitReady();                                    // –ñ–¥–µ–º –∑–∞–≤–µ—Ä—à–µ–Ω–∏—è –ø—Ä–µ–¥—ã
 704               		.loc 1 454 0 discriminator 1
 705 0002 9091 0000 		lds r25,twiMode
 706 0006 92FF      		sbrs r25,2
 707 0008 00C0      		rjmp .L92
 708               		.loc 1 454 0 is_stmt 0 discriminator 2
 709 000a 9091 0000 		lds r25,twiMode
 710 000e 9B7F      		andi r25,lo8(-5)
 711 0010 9093 0000 		sts twiMode,r25
 455:/home/arhat109/Arduino/libraries/Arhat/arhat_twi2.h ****     _twiMT_Buffer(command, clength);
 712               		.loc 1 455 0 is_stmt 1 discriminator 2
 713 0014 7093 0000 		sts twiMT_Ptr+1,r23
 714 0018 6093 0000 		sts twiMT_Ptr,r22
 715 001c 4093 0000 		sts twiMT_Count,r20
 456:/home/arhat109/Arduino/libraries/Arhat/arhat_twi2.h ****     _twiRX_Buffer(data, dlength);
 716               		.loc 1 456 0 discriminator 2
 717 0020 3093 0000 		sts twiRX_Ptr+1,r19
 718 0024 2093 0000 		sts twiRX_Ptr,r18
 719 0028 0093 0000 		sts twiRX_Count,r16
 457:/home/arhat109/Arduino/libraries/Arhat/arhat_twi2.h **** 
 458:/home/arhat109/Arduino/libraries/Arhat/arhat_twi2.h ****     twiHookRestart = 0;                                 // —Ç–∏–ø–æ–≤–æ–π –ø–µ—Ä–µ—Ö–æ–¥ –Ω–∞ —á—Ç–
 720               		.loc 1 458 0 discriminator 2
 721 002c 1092 0000 		sts twiHookRestart+1,__zero_reg__
 722 0030 1092 0000 		sts twiHookRestart,__zero_reg__
 459:/home/arhat109/Arduino/libraries/Arhat/arhat_twi2.h ****     twiMode &= ~TWI_SEND_STOP;                          // —Ä–µ—Å—Ç–∞—Ä—Ç –ø–æ—Å–ª–µ –æ—Ç–ø—Ä–∞–≤–∫
 723               		.loc 1 459 0 discriminator 2
 724 0034 9091 0000 		lds r25,twiMode
 725 0038 9D7F      		andi r25,lo8(-3)
 726 003a 9093 0000 		sts twiMode,r25
 460:/home/arhat109/Arduino/libraries/Arhat/arhat_twi2.h ****     twiSLARW = (address<<1 | TWI_WRITE);                // –°–Ω–∞—á–∞–ª–∞ —Ä–µ–∂–∏–º –ø–µ—Ä–µ–¥–∞—á
 727               		.loc 1 460 0 discriminator 2
 728 003e 880F      		lsl r24
 729               	.LVL61:
 730 0040 8093 0000 		sts twiSLARW,r24
 461:/home/arhat109/Arduino/libraries/Arhat/arhat_twi2.h ****     TWCR = twiStart(twiMode & TWI_IS_SLAVE);
 731               		.loc 1 461 0 discriminator 2
GAS LISTING /tmp/ccFP0NC0.s 			page 22


 732 0044 8091 0000 		lds r24,twiMode
 733 0048 80FF      		sbrs r24,0
 734 004a 00C0      		rjmp .L94
 735               		.loc 1 461 0 is_stmt 0
 736 004c 85EE      		ldi r24,lo8(-27)
 737 004e 00C0      		rjmp .L93
 738               	.L94:
 739 0050 85EA      		ldi r24,lo8(-91)
 740               	.L93:
 741               		.loc 1 461 0 discriminator 3
 742 0052 8093 BC00 		sts 188,r24
 743               	/* epilogue start */
 462:/home/arhat109/Arduino/libraries/Arhat/arhat_twi2.h **** }
 744               		.loc 1 462 0 is_stmt 1 discriminator 3
 745 0056 0F91      		pop r16
 746               	.LVL62:
 747 0058 0895      		ret
 748               		.cfi_endproc
 749               	.LFE110:
 750               		.size	twiRAW, .-twiRAW
 751               		.section	.text.lcdPrepare,"ax",@progbits
 752               	.global	lcdPrepare
 753               		.type	lcdPrepare, @function
 754               	lcdPrepare:
 755               	.LFB111:
 756               		.file 2 "LCD1602ex.ino"
   1:LCD1602ex.ino **** 
 757               		.loc 2 490 0
 758               		.cfi_startproc
 759               	.LVL63:
 760               	/* prologue: function */
 761               	/* frame size = 0 */
 762               	/* stack size = 0 */
 763               	.L__stack_usage = 0
 764               	.LBB8:
 765               		.loc 2 491 0
 766 0000 2091 0000 		lds r18,lcdBackLight
 767 0004 982F      		mov r25,r24
 768 0006 907F      		andi r25,lo8(-16)
 769 0008 922B      		or r25,r18
 770               	.LVL64:
 771               		.loc 2 493 0
 772 000a 6111      		cpse r22,__zero_reg__
 773               		.loc 2 493 0 is_stmt 0 discriminator 1
 774 000c 9160      		ori r25,lo8(1)
 775               	.LVL65:
 776               	.L96:
 777               		.loc 2 494 0 is_stmt 1
 778 000e 9093 0000 		sts lcdBuffer,r25
 779 0012 9093 0000 		sts lcdBuffer+2,r25
 780               	.LVL66:
 781               		.loc 2 495 0
 782 0016 9460      		ori r25,lo8(4)
 783               	.LVL67:
 784               		.loc 2 496 0
 785 0018 9093 0000 		sts lcdBuffer+1,r25
 786               		.loc 2 498 0
GAS LISTING /tmp/ccFP0NC0.s 			page 23


 787 001c 30E1      		ldi r19,lo8(16)
 788 001e 839F      		mul r24,r19
 789 0020 C001      		movw r24,r0
 790 0022 1124      		clr __zero_reg__
 791               	.LVL68:
 792 0024 822B      		or r24,r18
 793               	.LVL69:
 794               		.loc 2 500 0
 795 0026 6111      		cpse r22,__zero_reg__
 796               		.loc 2 500 0 is_stmt 0 discriminator 1
 797 0028 8160      		ori r24,lo8(1)
 798               	.LVL70:
 799               	.L97:
 800               		.loc 2 501 0 is_stmt 1
 801 002a 8093 0000 		sts lcdBuffer+3,r24
 802 002e 8093 0000 		sts lcdBuffer+5,r24
 803               	.LVL71:
 804               		.loc 2 502 0
 805 0032 8460      		ori r24,lo8(4)
 806               	.LVL72:
 807               		.loc 2 503 0
 808 0034 8093 0000 		sts lcdBuffer+4,r24
 809 0038 0895      		ret
 810               	.LBE8:
 811               		.cfi_endproc
 812               	.LFE111:
 813               		.size	lcdPrepare, .-lcdPrepare
 814               		.section	.text.lcdWrite,"ax",@progbits
 815               	.global	lcdWrite
 816               		.type	lcdWrite, @function
 817               	lcdWrite:
 818               	.LFB112:
 819               		.loc 2 511 0
 820               		.cfi_startproc
 821               	.LVL73:
 822 0000 1F93      		push r17
 823               	.LCFI20:
 824               		.cfi_def_cfa_offset 4
 825               		.cfi_offset 17, -3
 826 0002 CF93      		push r28
 827               	.LCFI21:
 828               		.cfi_def_cfa_offset 5
 829               		.cfi_offset 28, -4
 830 0004 DF93      		push r29
 831               	.LCFI22:
 832               		.cfi_def_cfa_offset 6
 833               		.cfi_offset 29, -5
 834               	/* prologue: function */
 835               	/* frame size = 0 */
 836               	/* stack size = 3 */
 837               	.L__stack_usage = 3
 838 0006 162F      		mov r17,r22
 839               	.LVL74:
 840               	.LBB9:
 841               		.loc 2 515 0
 842 0008 2091 0000 		lds r18,twiMode
 843 000c 2260      		ori r18,lo8(2)
GAS LISTING /tmp/ccFP0NC0.s 			page 24


 844 000e 2093 0000 		sts twiMode,r18
 845               		.loc 2 516 0
 846 0012 C82F      		mov r28,r24
 847 0014 D92F      		mov r29,r25
 848 0016 180F      		add r17,r24
 849               	.LVL75:
 850               	.L105:
 851               		.loc 2 516 0 is_stmt 0 discriminator 1
 852 0018 1C17      		cp r17,r28
 853 001a 01F0      		breq .L107
 854               	.LVL76:
 855               		.loc 2 517 0 is_stmt 1
 856 001c 61E0      		ldi r22,lo8(1)
 857 001e 8991      		ld r24,Y+
 858               	.LVL77:
 859 0020 0E94 0000 		call lcdPrepare
 860               	.LVL78:
 861 0024 46E0      		ldi r20,lo8(6)
 862 0026 60E0      		ldi r22,lo8(lcdBuffer)
 863 0028 70E0      		ldi r23,hi8(lcdBuffer)
 864 002a 8091 0000 		lds r24,lcdAddress
 865 002e 0E94 0000 		call twiWrite
 866               	.LVL79:
 867 0032 85E0      		ldi r24,lo8(5)
 868 0034 90E0      		ldi r25,0
 869 0036 0E94 0000 		call time_delay16
 870               	.LVL80:
 871 003a 00C0      		rjmp .L105
 872               	.LVL81:
 873               	.L107:
 874               	/* epilogue start */
 875               	.LBE9:
 876               		.loc 2 518 0
 877 003c DF91      		pop r29
 878 003e CF91      		pop r28
 879               	.LVL82:
 880 0040 1F91      		pop r17
 881 0042 0895      		ret
 882               		.cfi_endproc
 883               	.LFE112:
 884               		.size	lcdWrite, .-lcdWrite
 885               		.section	.text.lcdInit,"ax",@progbits
 886               	.global	lcdInit
 887               		.type	lcdInit, @function
 888               	lcdInit:
 889               	.LFB113:
 890               		.loc 2 524 0
 891               		.cfi_startproc
 892               	/* prologue: function */
 893               	/* frame size = 0 */
 894               	/* stack size = 0 */
 895               	.L__stack_usage = 0
 896               		.loc 2 525 0
 897 0000 60E0      		ldi r22,0
 898 0002 8091 0000 		lds r24,lcdModes
 899 0006 0E94 0000 		call lcdPrepare
 900               	.LVL83:
GAS LISTING /tmp/ccFP0NC0.s 			page 25


 901 000a 46E0      		ldi r20,lo8(6)
 902 000c 60E0      		ldi r22,lo8(lcdBuffer)
 903 000e 70E0      		ldi r23,hi8(lcdBuffer)
 904 0010 8091 0000 		lds r24,lcdAddress
 905 0014 0E94 0000 		call twiWrite
 906               	.LVL84:
 907 0018 85E0      		ldi r24,lo8(5)
 908 001a 90E0      		ldi r25,0
 909 001c 0E94 0000 		call time_delay16
 910               	.LVL85:
 911               		.loc 2 526 0
 912 0020 60E0      		ldi r22,0
 913 0022 8091 0000 		lds r24,lcdShows
 914 0026 0E94 0000 		call lcdPrepare
 915               	.LVL86:
 916 002a 46E0      		ldi r20,lo8(6)
 917 002c 60E0      		ldi r22,lo8(lcdBuffer)
 918 002e 70E0      		ldi r23,hi8(lcdBuffer)
 919 0030 8091 0000 		lds r24,lcdAddress
 920 0034 0E94 0000 		call twiWrite
 921               	.LVL87:
 922 0038 85E0      		ldi r24,lo8(5)
 923 003a 90E0      		ldi r25,0
 924 003c 0E94 0000 		call time_delay16
 925               	.LVL88:
 926               		.loc 2 527 0
 927 0040 60E0      		ldi r22,0
 928 0042 8091 0000 		lds r24,lcdShifts
 929 0046 0E94 0000 		call lcdPrepare
 930               	.LVL89:
 931 004a 46E0      		ldi r20,lo8(6)
 932 004c 60E0      		ldi r22,lo8(lcdBuffer)
 933 004e 70E0      		ldi r23,hi8(lcdBuffer)
 934 0050 8091 0000 		lds r24,lcdAddress
 935 0054 0E94 0000 		call twiWrite
 936               	.LVL90:
 937 0058 85E0      		ldi r24,lo8(5)
 938 005a 90E0      		ldi r25,0
 939 005c 0E94 0000 		call time_delay16
 940               	.LVL91:
 941               		.loc 2 528 0
 942 0060 60E0      		ldi r22,0
 943 0062 81E0      		ldi r24,lo8(1)
 944 0064 0E94 0000 		call lcdPrepare
 945               	.LVL92:
 946 0068 46E0      		ldi r20,lo8(6)
 947 006a 60E0      		ldi r22,lo8(lcdBuffer)
 948 006c 70E0      		ldi r23,hi8(lcdBuffer)
 949 006e 8091 0000 		lds r24,lcdAddress
 950 0072 0E94 0000 		call twiWrite
 951               	.LVL93:
 952 0076 85E0      		ldi r24,lo8(5)
 953 0078 90E0      		ldi r25,0
 954 007a 0E94 0000 		call time_delay16
 955               	.LVL94:
 956 007e 80E1      		ldi r24,lo8(16)
 957 0080 90E0      		ldi r25,0
GAS LISTING /tmp/ccFP0NC0.s 			page 26


 958 0082 0E94 0000 		call time_delay16
 959               	.LVL95:
 960               		.loc 2 529 0
 961 0086 60E0      		ldi r22,0
 962 0088 82E0      		ldi r24,lo8(2)
 963 008a 0E94 0000 		call lcdPrepare
 964               	.LVL96:
 965 008e 46E0      		ldi r20,lo8(6)
 966 0090 60E0      		ldi r22,lo8(lcdBuffer)
 967 0092 70E0      		ldi r23,hi8(lcdBuffer)
 968 0094 8091 0000 		lds r24,lcdAddress
 969 0098 0E94 0000 		call twiWrite
 970               	.LVL97:
 971 009c 85E0      		ldi r24,lo8(5)
 972 009e 90E0      		ldi r25,0
 973 00a0 0C94 0000 		jmp time_delay16
 974               	.LVL98:
 975               		.cfi_endproc
 976               	.LFE113:
 977               		.size	lcdInit, .-lcdInit
 978               		.section	.text.lcdSetup,"ax",@progbits
 979               	.global	lcdSetup
 980               		.type	lcdSetup, @function
 981               	lcdSetup:
 982               	.LFB114:
 983               		.loc 2 536 0
 984               		.cfi_startproc
 985               	.LVL99:
 986 0000 CF93      		push r28
 987               	.LCFI23:
 988               		.cfi_def_cfa_offset 4
 989               		.cfi_offset 28, -3
 990               	/* prologue: function */
 991               	/* frame size = 0 */
 992               	/* stack size = 1 */
 993               	.L__stack_usage = 1
 994 0002 C42F      		mov r28,r20
 995               		.loc 2 537 0
 996 0004 8093 0000 		sts lcdAddress,r24
 997               		.loc 2 538 0
 998 0008 6093 0000 		sts lcdCols,r22
 999               		.loc 2 539 0
 1000 000c 4093 0000 		sts lcdRows,r20
 1001               		.loc 2 540 0
 1002 0010 2223      		tst r18
 1003 0012 01F0      		breq .L112
 1004 0014 88E0      		ldi r24,lo8(8)
 1005               	.LVL100:
 1006 0016 00C0      		rjmp .L110
 1007               	.LVL101:
 1008               	.L112:
 1009 0018 80E0      		ldi r24,0
 1010               	.LVL102:
 1011               	.L110:
 1012               		.loc 2 540 0 is_stmt 0 discriminator 3
 1013 001a 8093 0000 		sts lcdBackLight,r24
 1014               		.loc 2 541 0 is_stmt 1 discriminator 3
GAS LISTING /tmp/ccFP0NC0.s 			page 27


 1015 001e 80E2      		ldi r24,lo8(32)
 1016 0020 8093 0000 		sts lcdModes,r24
 1017               		.loc 2 542 0 discriminator 3
 1018 0024 86E0      		ldi r24,lo8(6)
 1019 0026 8093 0000 		sts lcdShifts,r24
 1020               		.loc 2 543 0 discriminator 3
 1021 002a 8CE0      		ldi r24,lo8(12)
 1022 002c 8093 0000 		sts lcdShows,r24
 1023               		.loc 2 547 0 discriminator 3
 1024 0030 46E0      		ldi r20,lo8(6)
 1025               	.LVL103:
 1026 0032 60EA      		ldi r22,lo8(-96)
 1027 0034 76E8      		ldi r23,lo8(-122)
 1028 0036 81E0      		ldi r24,lo8(1)
 1029 0038 90E0      		ldi r25,0
 1030               	.LVL104:
 1031 003a 0E94 0000 		call twiSetup
 1032               	.LVL105:
 1033               		.loc 2 551 0 discriminator 3
 1034 003e C230      		cpi r28,lo8(2)
 1035 0040 00F0      		brlo .L111
 1036               		.loc 2 551 0 is_stmt 0 discriminator 1
 1037 0042 8091 0000 		lds r24,lcdModes
 1038 0046 8860      		ori r24,lo8(8)
 1039 0048 8093 0000 		sts lcdModes,r24
 1040               	.L111:
 1041               		.loc 2 555 0 is_stmt 1
 1042 004c 60E0      		ldi r22,0
 1043 004e 80E3      		ldi r24,lo8(48)
 1044 0050 0E94 0000 		call lcdPrepare
 1045               	.LVL106:
 1046               		.loc 2 557 0
 1047 0054 8FE0      		ldi r24,lo8(15)
 1048 0056 90E0      		ldi r25,0
 1049 0058 0E94 0000 		call time_delay16
 1050               	.LVL107:
 1051               		.loc 2 558 0
 1052 005c 43E0      		ldi r20,lo8(3)
 1053 005e 60E0      		ldi r22,lo8(lcdBuffer)
 1054 0060 70E0      		ldi r23,hi8(lcdBuffer)
 1055 0062 8091 0000 		lds r24,lcdAddress
 1056 0066 0E94 0000 		call twiWrite
 1057               	.LVL108:
 1058 006a 85E0      		ldi r24,lo8(5)
 1059 006c 90E0      		ldi r25,0
 1060 006e 0E94 0000 		call time_delay16
 1061               	.LVL109:
 1062               		.loc 2 559 0
 1063 0072 85E0      		ldi r24,lo8(5)
 1064 0074 90E0      		ldi r25,0
 1065 0076 0E94 0000 		call time_delay16
 1066               	.LVL110:
 1067               		.loc 2 560 0
 1068 007a 43E0      		ldi r20,lo8(3)
 1069 007c 60E0      		ldi r22,lo8(lcdBuffer)
 1070 007e 70E0      		ldi r23,hi8(lcdBuffer)
 1071 0080 8091 0000 		lds r24,lcdAddress
GAS LISTING /tmp/ccFP0NC0.s 			page 28


 1072 0084 0E94 0000 		call twiWrite
 1073               	.LVL111:
 1074 0088 85E0      		ldi r24,lo8(5)
 1075 008a 90E0      		ldi r25,0
 1076 008c 0E94 0000 		call time_delay16
 1077               	.LVL112:
 1078               		.loc 2 561 0
 1079 0090 80E9      		ldi r24,lo8(-112)
 1080 0092 91E0      		ldi r25,lo8(1)
 1081               	/* #APP */
 1082               	 ;  561 "LCD1602ex.ino" 1
 1083 0094 0197      		1: sbiw r24,1 
 1084 0096 01F4      		brne 1b
 1085               		
 1086               	 ;  0 "" 2
 1087               		.loc 2 562 0
 1088               	/* #NOAPP */
 1089 0098 43E0      		ldi r20,lo8(3)
 1090 009a 60E0      		ldi r22,lo8(lcdBuffer)
 1091 009c 70E0      		ldi r23,hi8(lcdBuffer)
 1092 009e 8091 0000 		lds r24,lcdAddress
 1093 00a2 0E94 0000 		call twiWrite
 1094               	.LVL113:
 1095 00a6 85E0      		ldi r24,lo8(5)
 1096 00a8 90E0      		ldi r25,0
 1097 00aa 0E94 0000 		call time_delay16
 1098               	.LVL114:
 1099               		.loc 2 564 0
 1100 00ae 60E0      		ldi r22,0
 1101 00b0 80E2      		ldi r24,lo8(32)
 1102 00b2 0E94 0000 		call lcdPrepare
 1103               	.LVL115:
 1104               		.loc 2 565 0
 1105 00b6 43E0      		ldi r20,lo8(3)
 1106 00b8 60E0      		ldi r22,lo8(lcdBuffer)
 1107 00ba 70E0      		ldi r23,hi8(lcdBuffer)
 1108 00bc 8091 0000 		lds r24,lcdAddress
 1109 00c0 0E94 0000 		call twiWrite
 1110               	.LVL116:
 1111 00c4 85E0      		ldi r24,lo8(5)
 1112 00c6 90E0      		ldi r25,0
 1113 00c8 0E94 0000 		call time_delay16
 1114               	.LVL117:
 1115               		.loc 2 567 0
 1116 00cc 0E94 0000 		call lcdInit
 1117               	.LVL118:
 1118               		.loc 2 568 0
 1119 00d0 84EF      		ldi r24,lo8(-12)
 1120 00d2 91E0      		ldi r25,lo8(1)
 1121               	/* epilogue start */
 1122               		.loc 2 569 0
 1123 00d4 CF91      		pop r28
 1124               	.LVL119:
 1125               		.loc 2 568 0
 1126 00d6 0C94 0000 		jmp time_delay16
 1127               	.LVL120:
 1128               		.cfi_endproc
GAS LISTING /tmp/ccFP0NC0.s 			page 29


 1129               	.LFE114:
 1130               		.size	lcdSetup, .-lcdSetup
 1131               		.section	.rodata.str1.1,"aMS",@progbits,1
 1132               	.LC0:
 1133 0000 4865 6C6C 		.string	"Hello, AAAAAA"
 1133      6F2C 2041 
 1133      4141 4141 
 1133      4100 
 1134               		.section	.text.setup,"ax",@progbits
 1135               	.global	setup
 1136               		.type	setup, @function
 1137               	setup:
 1138               	.LFB115:
 1139               		.loc 2 577 0
 1140               		.cfi_startproc
 1141               	/* prologue: function */
 1142               	/* frame size = 0 */
 1143               	/* stack size = 0 */
 1144               	.L__stack_usage = 0
 1145               	.LBB10:
 1146               		.loc 2 581 0
 1147 0000 21E0      		ldi r18,lo8(1)
 1148 0002 42E0      		ldi r20,lo8(2)
 1149 0004 60E1      		ldi r22,lo8(16)
 1150 0006 87E2      		ldi r24,lo8(39)
 1151 0008 0E94 0000 		call lcdSetup
 1152               	.LVL121:
 1153               		.loc 2 582 0
 1154 000c 6DE0      		ldi r22,lo8(13)
 1155 000e 80E0      		ldi r24,lo8(.LC0)
 1156 0010 90E0      		ldi r25,hi8(.LC0)
 1157 0012 0C94 0000 		jmp lcdWrite
 1158               	.LVL122:
 1159               	.LBE10:
 1160               		.cfi_endproc
 1161               	.LFE115:
 1162               		.size	setup, .-setup
 1163               		.section	.text.loop,"ax",@progbits
 1164               	.global	loop
 1165               		.type	loop, @function
 1166               	loop:
 1167               	.LFB116:
 1168               		.loc 2 588 0
 1169               		.cfi_startproc
 1170               	/* prologue: function */
 1171               	/* frame size = 0 */
 1172               	/* stack size = 0 */
 1173               	.L__stack_usage = 0
 1174 0000 0895      		ret
 1175               		.cfi_endproc
 1176               	.LFE116:
 1177               		.size	loop, .-loop
 1178               	.global	lcdBuffer
 1179               		.section	.bss.lcdBuffer,"aw",@nobits
 1180               		.type	lcdBuffer, @object
 1181               		.size	lcdBuffer, 6
 1182               	lcdBuffer:
GAS LISTING /tmp/ccFP0NC0.s 			page 30


 1183 0000 0000 0000 		.zero	6
 1183      0000 
 1184               	.global	lcdRows
 1185               		.section	.data.lcdRows,"aw",@progbits
 1186               		.type	lcdRows, @object
 1187               		.size	lcdRows, 1
 1188               	lcdRows:
 1189 0000 02        		.byte	2
 1190               	.global	lcdCols
 1191               		.section	.data.lcdCols,"aw",@progbits
 1192               		.type	lcdCols, @object
 1193               		.size	lcdCols, 1
 1194               	lcdCols:
 1195 0000 10        		.byte	16
 1196               	.global	lcdAddress
 1197               		.section	.data.lcdAddress,"aw",@progbits
 1198               		.type	lcdAddress, @object
 1199               		.size	lcdAddress, 1
 1200               	lcdAddress:
 1201 0000 27        		.byte	39
 1202               	.global	lcdBackLight
 1203               		.section	.data.lcdBackLight,"aw",@progbits
 1204               		.type	lcdBackLight, @object
 1205               		.size	lcdBackLight, 1
 1206               	lcdBackLight:
 1207 0000 08        		.byte	8
 1208               	.global	lcdShows
 1209               		.section	.data.lcdShows,"aw",@progbits
 1210               		.type	lcdShows, @object
 1211               		.size	lcdShows, 1
 1212               	lcdShows:
 1213 0000 08        		.byte	8
 1214               	.global	lcdShifts
 1215               		.section	.data.lcdShifts,"aw",@progbits
 1216               		.type	lcdShifts, @object
 1217               		.size	lcdShifts, 1
 1218               	lcdShifts:
 1219 0000 06        		.byte	6
 1220               	.global	lcdModes
 1221               		.section	.data.lcdModes,"aw",@progbits
 1222               		.type	lcdModes, @object
 1223               		.size	lcdModes, 1
 1224               	lcdModes:
 1225 0000 30        		.byte	48
 1226               		.section	.bss._ZL12twiStatistic,"aw",@nobits
 1227               		.type	_ZL12twiStatistic, @object
 1228               		.size	_ZL12twiStatistic, 20
 1229               	_ZL12twiStatistic:
 1230 0000 0000 0000 		.zero	20
 1230      0000 0000 
 1230      0000 0000 
 1230      0000 0000 
 1230      0000 0000 
 1231               	.global	twiSlaveWriter
 1232               		.section	.bss.twiSlaveWriter,"aw",@nobits
 1233               		.type	twiSlaveWriter, @object
 1234               		.size	twiSlaveWriter, 2
GAS LISTING /tmp/ccFP0NC0.s 			page 31


 1235               	twiSlaveWriter:
 1236 0000 0000      		.zero	2
 1237               	.global	twiSlaveReader
 1238               		.section	.bss.twiSlaveReader,"aw",@nobits
 1239               		.type	twiSlaveReader, @object
 1240               		.size	twiSlaveReader, 2
 1241               	twiSlaveReader:
 1242 0000 0000      		.zero	2
 1243               	.global	twiMasterReader
 1244               		.section	.bss.twiMasterReader,"aw",@nobits
 1245               		.type	twiMasterReader, @object
 1246               		.size	twiMasterReader, 2
 1247               	twiMasterReader:
 1248 0000 0000      		.zero	2
 1249               	.global	twiHookRestart
 1250               		.section	.bss.twiHookRestart,"aw",@nobits
 1251               		.type	twiHookRestart, @object
 1252               		.size	twiHookRestart, 2
 1253               	twiHookRestart:
 1254 0000 0000      		.zero	2
 1255               	.global	twiST_Ptr
 1256               		.section	.bss.twiST_Ptr,"aw",@nobits
 1257               		.type	twiST_Ptr, @object
 1258               		.size	twiST_Ptr, 2
 1259               	twiST_Ptr:
 1260 0000 0000      		.zero	2
 1261               	.global	twiST_Count
 1262               		.section	.bss.twiST_Count,"aw",@nobits
 1263               		.type	twiST_Count, @object
 1264               		.size	twiST_Count, 1
 1265               	twiST_Count:
 1266 0000 00        		.zero	1
 1267               	.global	twiRX_Ptr
 1268               		.section	.bss.twiRX_Ptr,"aw",@nobits
 1269               		.type	twiRX_Ptr, @object
 1270               		.size	twiRX_Ptr, 2
 1271               	twiRX_Ptr:
 1272 0000 0000      		.zero	2
 1273               	.global	twiRX_Count
 1274               		.section	.bss.twiRX_Count,"aw",@nobits
 1275               		.type	twiRX_Count, @object
 1276               		.size	twiRX_Count, 1
 1277               	twiRX_Count:
 1278 0000 00        		.zero	1
 1279               	.global	twiMT_Ptr
 1280               		.section	.bss.twiMT_Ptr,"aw",@nobits
 1281               		.type	twiMT_Ptr, @object
 1282               		.size	twiMT_Ptr, 2
 1283               	twiMT_Ptr:
 1284 0000 0000      		.zero	2
 1285               	.global	twiMT_Count
 1286               		.section	.bss.twiMT_Count,"aw",@nobits
 1287               		.type	twiMT_Count, @object
 1288               		.size	twiMT_Count, 1
 1289               	twiMT_Count:
 1290 0000 00        		.zero	1
 1291               	.global	twiSLARW
GAS LISTING /tmp/ccFP0NC0.s 			page 32


 1292               		.section	.bss.twiSLARW,"aw",@nobits
 1293               		.type	twiSLARW, @object
 1294               		.size	twiSLARW, 1
 1295               	twiSLARW:
 1296 0000 00        		.zero	1
 1297               	.global	twiState
 1298               		.section	.bss.twiState,"aw",@nobits
 1299               		.type	twiState, @object
 1300               		.size	twiState, 1
 1301               	twiState:
 1302 0000 00        		.zero	1
 1303               	.global	twiMode
 1304               		.section	.bss.twiMode,"aw",@nobits
 1305               		.type	twiMode, @object
 1306               		.size	twiMode, 1
 1307               	twiMode:
 1308 0000 00        		.zero	1
 1309               		.text
 1310               	.Letext0:
 1311               		.file 3 "/home/arhat109/progs/arduino-1.6.4/hardware/tools/avr/avr/include/stdint.h"
 1312               		.file 4 "/home/arhat109/Arduino/libraries/Arhat/arhat.h"