GAS LISTING /tmp/ccChP33i.s 			page 1


   1               		.file	"LCD1602ex.cpp"
   2               	__SP_H__ = 0x3e
   3               	__SP_L__ = 0x3d
   4               	__SREG__ = 0x3f
   5               	__RAMPZ__ = 0x3b
   6               	__tmp_reg__ = 0
   7               	__zero_reg__ = 1
   8               		.text
   9               	.Ltext0:
  10               		.cfi_sections	.debug_frame
  11               		.section	.text.twiSpeed,"ax",@progbits
  12               	.global	twiSpeed
  13               		.type	twiSpeed, @function
  14               	twiSpeed:
  15               	.LFB102:
  16               		.file 1 "/home/arhat109/Arduino/libraries/Arhat/arhat_twi2.h"
   1:/home/arhat109/Arduino/libraries/Arhat/arhat_twi2.h **** /**
   2:/home/arhat109/Arduino/libraries/Arhat/arhat_twi2.h ****  * –†–∞–±–æ—Ç–∞ —Å TWI (I2C, 2-Wire) –∏–Ω—Ç–µ—Ä—Ñ–µ–π—Å–æ–º —á–µ—Ä–µ–∑ –∞–ø–ø–∞—Ä–∞—Ç–Ω—ã–µ –ø—Ä–µ—
   3:/home/arhat109/Arduino/libraries/Arhat/arhat_twi2.h ****  *
   4:/home/arhat109/Arduino/libraries/Arhat/arhat_twi2.h ****  * ! –ê–ø–ø–∞—Ä–∞—Ç–Ω–æ –Ω–µ –±—ã–≤–∞–µ—Ç –æ–¥–Ω–æ–≤—Ä–µ–º–µ–Ω–Ω–æ —Ä–µ–∂–∏–º–∞ Master-RX –∏ Slave-
   5:/home/arhat109/Arduino/libraries/Arhat/arhat_twi2.h ****  * ! –ù–µ—Ç –Ω–∏–∫–∞–∫–∏—Ö "–ø—Ä–æ–≤–µ—Ä–æ–∫", –Ω–∞—Å—Ç—Ä–æ–π–∫–∞ –≥–ª–æ–±–∞–ª–æ–≤ - –æ–±—è–∑–∞—Ç–µ
   6:/home/arhat109/Arduino/libraries/Arhat/arhat_twi2.h ****  * Master-Transmitter: twiMT_Ptr, twiMT_Count                  -- –æ—Ç–∫—É–¥–∞ –∏ —Å–∫–æ–ª—å–∫–æ –±
   7:/home/arhat109/Arduino/libraries/Arhat/arhat_twi2.h ****  * Master-Receiver:    twiRX_Ptr, twiRX_Count, twiMasterReader -- –∫—É–¥–∞ –∏ —Å–∫–æ–ª—å–∫–æ –ø—Ä–∏
   8:/home/arhat109/Arduino/libraries/Arhat/arhat_twi2.h ****  * Slave-Receiver:     twiRX_Ptr, twiRX_Count, twiSlaveReader  -- –∫—É–¥–∞ –∏ —Å–∫–æ–ª—å–∫–æ –ø—Ä–∏
   9:/home/arhat109/Arduino/libraries/Arhat/arhat_twi2.h ****  * Slave-Transmitter:  twiST_Ptr, twiST_Count, twiSlaveWriter  -- –æ—Ç–∫—É–¥–∞ –∏ —Å–∫–æ–ª—å–∫–æ –æ
  10:/home/arhat109/Arduino/libraries/Arhat/arhat_twi2.h ****  *
  11:/home/arhat109/Arduino/libraries/Arhat/arhat_twi2.h ****  * –û—Å–æ–±–µ–Ω–Ω–æ—Å—Ç–∏ –∏ –æ—Ç–ª–∏—á–∏—è –æ—Ç —Ç–∏–ø–æ–≤—ã—Ö —Ä–∞–∑—Ä–∞–±–æ—Ç–æ–∫ (—Å–æ–±—Ä–∞–Ω–
  12:/home/arhat109/Arduino/libraries/Arhat/arhat_twi2.h ****  * 1. –í–æ–∑–º–æ–∂–Ω–æ—Å—Ç—å –æ–¥–Ω–æ–≤—Ä–µ–º–µ–Ω–Ω–æ–π —Ä–∞–±–æ—Ç—ã –∫–∞–∫ –≤ —Ä–µ–∂–∏–º–µ Master 
  13:/home/arhat109/Arduino/libraries/Arhat/arhat_twi2.h ****  * 2. –í–Ω–µ—à–Ω—è—è –±—É—Ñ–µ—Ä–∏–∑–∞—Ü–∏—è –¥–∞–Ω–Ω—ã—Ö –ø—Ä–∏ –Ω–µ–æ–±—Ö–æ–¥–∏–º–æ—Å—Ç–∏. –†–∞–∑–
  14:/home/arhat109/Arduino/libraries/Arhat/arhat_twi2.h ****  * 3. –í–æ–∑–º–æ–∂–Ω–æ—Å—Ç—å –≤–µ–¥–µ–Ω–∏—è —Å—Ç–∞—Ç–∏—Å—Ç–∏–∫–∏ - —É–ø—Ä–∞–≤–ª—è–µ—Ç—Å—è –∫–æ–Ω—Å—
  15:/home/arhat109/Arduino/libraries/Arhat/arhat_twi2.h ****  * 4. –ü—Ä–æ–∏–∑–≤–æ–ª—å–Ω–∞—è –Ω–∞—Å—Ç—Ä–æ–π–∫–∞ —Å–∫–æ—Ä–æ—Å—Ç–∏ —Ä–∞–±–æ—Ç—ã –∏–Ω—Ç–µ—Ä—Ñ–µ–π—Å–
  16:/home/arhat109/Arduino/libraries/Arhat/arhat_twi2.h ****  * 5. –í–æ–∑–º–æ–∂–Ω–æ—Å—Ç—å —É–º–µ–Ω—å—à–µ–Ω–Ω–æ–π –∫–æ–º–ø–ª–∏—Ü–∏–∏ —Ç–æ–ª—å–∫–æ —Ä–µ–∂–∏–º–∞ Ma
  17:/home/arhat109/Arduino/libraries/Arhat/arhat_twi2.h ****  *
  18:/home/arhat109/Arduino/libraries/Arhat/arhat_twi2.h ****  * –ö–æ–Ω—Å—Ç–∞–Ω—Ç—ã –∫–æ–º–ø–∏–ª—è—Ü–∏–∏ #define –∏ default_value:
  19:/home/arhat109/Arduino/libraries/Arhat/arhat_twi2.h ****  * #define TWI_LOG_ON   1 // –µ—Å–ª–∏ –Ω–µ –æ–ø—Ä–µ–¥–µ–ª–µ–Ω–æ, —Ç–æ –Ω–µ –∫–æ–º–ø–∏–ª–∏—Ä–æ–≤–∞—Ç
  20:/home/arhat109/Arduino/libraries/Arhat/arhat_twi2.h ****  * #define TWI_SLAVE_ON 1 // –µ—Å–ª–∏ –Ω–µ –æ–ø—Ä–µ–¥–µ–ª–µ–Ω–æ, —Ç–æ –Ω–µ –∫–æ–º–ø–∏–ª–∏—Ä–æ–≤–∞—Ç
  21:/home/arhat109/Arduino/libraries/Arhat/arhat_twi2.h ****  *
  22:/home/arhat109/Arduino/libraries/Arhat/arhat_twi2.h ****  * @author Arhat109-20160402. arhat109@mail.ru
  23:/home/arhat109/Arduino/libraries/Arhat/arhat_twi2.h ****  * @license:
  24:/home/arhat109/Arduino/libraries/Arhat/arhat_twi2.h ****  *   1. This is a free software for any using and distributing without any warranties.
  25:/home/arhat109/Arduino/libraries/Arhat/arhat_twi2.h ****  *   2. You should keep author tag with any changes. May be with adding.
  26:/home/arhat109/Arduino/libraries/Arhat/arhat_twi2.h ****  *   –≠—Ç–æ —Å–≤–æ–±–æ–¥–Ω–æ–µ –ü–û –¥–ª—è –ª—é–±–æ–≥–æ –∏—Å–ø–æ–ª—å–∑–æ–≤–∞–Ω–∏—è –±–µ–∑ –∫–∞–∫–∏—
  27:/home/arhat109/Arduino/libraries/Arhat/arhat_twi2.h ****  *   –¢—Ä–µ–±—É–µ—Ç—Å—è —Å–æ—Ö—Ä–∞–Ω—è—Ç—å —Ç–µ–≥ @author –ø—Ä–∏ –ª—é–±—ã—Ö –∏–∑–º–µ–Ω–µ–Ω–∏—è—Ö. –
  28:/home/arhat109/Arduino/libraries/Arhat/arhat_twi2.h ****  */
  29:/home/arhat109/Arduino/libraries/Arhat/arhat_twi2.h **** #ifndef ARHAT_TWI_H
  30:/home/arhat109/Arduino/libraries/Arhat/arhat_twi2.h **** #define ARHAT_TWI_H 1
  31:/home/arhat109/Arduino/libraries/Arhat/arhat_twi2.h **** 
  32:/home/arhat109/Arduino/libraries/Arhat/arhat_twi2.h **** //#include "arhat.h"
  33:/home/arhat109/Arduino/libraries/Arhat/arhat_twi2.h **** // Compiler mode ONLY! Use as digits into #define TWI_ON before include this file ONLY!
  34:/home/arhat109/Arduino/libraries/Arhat/arhat_twi2.h **** // @TODO: to move into arhat.h
  35:/home/arhat109/Arduino/libraries/Arhat/arhat_twi2.h **** #define TWI_MASTER_TX    1
  36:/home/arhat109/Arduino/libraries/Arhat/arhat_twi2.h **** #define TWI_MASTER_RX    2
  37:/home/arhat109/Arduino/libraries/Arhat/arhat_twi2.h **** #define TWI_IS_SLAVE_RX  4
  38:/home/arhat109/Arduino/libraries/Arhat/arhat_twi2.h **** #define TWI_IS_SLAVE_TX  8
  39:/home/arhat109/Arduino/libraries/Arhat/arhat_twi2.h **** #define TWI_LOG_ON      16
  40:/home/arhat109/Arduino/libraries/Arhat/arhat_twi2.h **** 
  41:/home/arhat109/Arduino/libraries/Arhat/arhat_twi2.h **** // ------------ All states TWI status register AND twiState: ------------- //
GAS LISTING /tmp/ccChP33i.s 			page 2


  42:/home/arhat109/Arduino/libraries/Arhat/arhat_twi2.h **** // Misc
  43:/home/arhat109/Arduino/libraries/Arhat/arhat_twi2.h **** #define TWI_ERROR                  0x00 // Misc: illegal start or stop condition
  44:/home/arhat109/Arduino/libraries/Arhat/arhat_twi2.h **** #define TWI_NO_INFO                0xF8 // Misc: no state information available
  45:/home/arhat109/Arduino/libraries/Arhat/arhat_twi2.h **** 
  46:/home/arhat109/Arduino/libraries/Arhat/arhat_twi2.h **** // I am Master
  47:/home/arhat109/Arduino/libraries/Arhat/arhat_twi2.h **** #define TWI_START                  0x08 // start condition transmitted
  48:/home/arhat109/Arduino/libraries/Arhat/arhat_twi2.h **** #define TWI_REP_START              0x10 // repeated start condition transmitted
  49:/home/arhat109/Arduino/libraries/Arhat/arhat_twi2.h **** #define TWI_MTR_ARB_LOST           0x38 // arbitration lost in SLA+W or data
  50:/home/arhat109/Arduino/libraries/Arhat/arhat_twi2.h **** 
  51:/home/arhat109/Arduino/libraries/Arhat/arhat_twi2.h **** // Master Transmitter
  52:/home/arhat109/Arduino/libraries/Arhat/arhat_twi2.h **** #define TWI_MT_SLA_ACK             0x18 // address: SLA+W transmitted, ACK received
  53:/home/arhat109/Arduino/libraries/Arhat/arhat_twi2.h **** #define TWI_MT_SLA_NACK            0x20 // address: SLA+W transmitted, NACK received
  54:/home/arhat109/Arduino/libraries/Arhat/arhat_twi2.h **** #define TWI_MT_DATA_ACK            0x28 // data: transmitted, ACK received
  55:/home/arhat109/Arduino/libraries/Arhat/arhat_twi2.h **** #define TWI_MT_DATA_NACK           0x30 // data: transmitted, NACK received
  56:/home/arhat109/Arduino/libraries/Arhat/arhat_twi2.h **** 
  57:/home/arhat109/Arduino/libraries/Arhat/arhat_twi2.h **** // Master Receiver
  58:/home/arhat109/Arduino/libraries/Arhat/arhat_twi2.h **** #define TWI_MR_SLA_ACK             0x40 // address: SLA+R transmitted, ACK received
  59:/home/arhat109/Arduino/libraries/Arhat/arhat_twi2.h **** #define TWI_MR_SLA_NACK            0x48 // address: SLA+R transmitted, NACK received
  60:/home/arhat109/Arduino/libraries/Arhat/arhat_twi2.h **** #define TWI_MR_DATA_ACK            0x50 // data: received, ACK returned
  61:/home/arhat109/Arduino/libraries/Arhat/arhat_twi2.h **** #define TWI_MR_DATA_NACK           0x58 // data: received, NACK returned
  62:/home/arhat109/Arduino/libraries/Arhat/arhat_twi2.h **** 
  63:/home/arhat109/Arduino/libraries/Arhat/arhat_twi2.h **** // I am Slave
  64:/home/arhat109/Arduino/libraries/Arhat/arhat_twi2.h **** // Slave Receiver
  65:/home/arhat109/Arduino/libraries/Arhat/arhat_twi2.h **** #define TWI_SR_SLA_ACK             0x60 // address: SLA+W received, ACK returned
  66:/home/arhat109/Arduino/libraries/Arhat/arhat_twi2.h **** #define TWI_SR_ARB_LOST_SLA_ACK    0x68 // arbitration lost in SLA+RW, SLA+W received, ACK returned
  67:/home/arhat109/Arduino/libraries/Arhat/arhat_twi2.h **** #define TWI_SR_GCALL_ACK           0x70 // general call received, ACK returned
  68:/home/arhat109/Arduino/libraries/Arhat/arhat_twi2.h **** #define TWI_SR_ARB_LOST_GCALL_ACK  0x78 // arbitration lost in SLA+RW, general call received, ACK r
  69:/home/arhat109/Arduino/libraries/Arhat/arhat_twi2.h **** #define TWI_SR_DATA_ACK            0x80 // data: received, ACK returned
  70:/home/arhat109/Arduino/libraries/Arhat/arhat_twi2.h **** #define TWI_SR_DATA_NACK           0x88 // data: received, NACK returned
  71:/home/arhat109/Arduino/libraries/Arhat/arhat_twi2.h **** #define TWI_SR_GCALL_DATA_ACK      0x90 // general call data received, ACK returned
  72:/home/arhat109/Arduino/libraries/Arhat/arhat_twi2.h **** #define TWI_SR_GCALL_DATA_NACK     0x98 // general call data received, NACK returned
  73:/home/arhat109/Arduino/libraries/Arhat/arhat_twi2.h **** #define TWI_SR_STOP                0xA0 // stop or repeated start condition received while selected
  74:/home/arhat109/Arduino/libraries/Arhat/arhat_twi2.h **** 
  75:/home/arhat109/Arduino/libraries/Arhat/arhat_twi2.h **** // Slave Transmitter
  76:/home/arhat109/Arduino/libraries/Arhat/arhat_twi2.h **** #define TWI_ST_SLA_ACK             0xA8 // address: SLA+R received, ACK returned
  77:/home/arhat109/Arduino/libraries/Arhat/arhat_twi2.h **** #define TWI_ST_ARB_LOST_SLA_ACK    0xB0 // arbitration lost in SLA+RW, SLA+R received, ACK returned
  78:/home/arhat109/Arduino/libraries/Arhat/arhat_twi2.h **** #define TWI_ST_DATA_ACK            0xB8 // data: transmitted, ACK received
  79:/home/arhat109/Arduino/libraries/Arhat/arhat_twi2.h **** #define TWI_ST_DATA_NACK           0xC0 // data: transmitted, NACK received
  80:/home/arhat109/Arduino/libraries/Arhat/arhat_twi2.h **** #define TWI_ST_LAST_DATA           0xC8 // last data byte transmitted, ACK received
  81:/home/arhat109/Arduino/libraries/Arhat/arhat_twi2.h **** 
  82:/home/arhat109/Arduino/libraries/Arhat/arhat_twi2.h **** // ------------ Macros for TWI ------------- //
  83:/home/arhat109/Arduino/libraries/Arhat/arhat_twi2.h **** 
  84:/home/arhat109/Arduino/libraries/Arhat/arhat_twi2.h **** #define TWI_STATUS_MASK (_BV(TWS7)|_BV(TWS6)|_BV(TWS5)|_BV(TWS4)|_BV(TWS3)) // Two LSB are prescale
  85:/home/arhat109/Arduino/libraries/Arhat/arhat_twi2.h **** #define TWI_STATUS      (TWSR & TWI_STATUS_MASK)                            // Get status from TWSR
  86:/home/arhat109/Arduino/libraries/Arhat/arhat_twi2.h **** 
  87:/home/arhat109/Arduino/libraries/Arhat/arhat_twi2.h **** #define TWI_READ    1                   // for SLA+R address
  88:/home/arhat109/Arduino/libraries/Arhat/arhat_twi2.h **** #define TWI_WRITE   0                   // SLA+W address
  89:/home/arhat109/Arduino/libraries/Arhat/arhat_twi2.h **** #define TWI_ACK     1
  90:/home/arhat109/Arduino/libraries/Arhat/arhat_twi2.h **** #define TWI_NACK    0
  91:/home/arhat109/Arduino/libraries/Arhat/arhat_twi2.h **** 
  92:/home/arhat109/Arduino/libraries/Arhat/arhat_twi2.h **** #define twiOn()       (PRR0 &= ~_BV(7)) // =0: TWI power is On (default on power!)
  93:/home/arhat109/Arduino/libraries/Arhat/arhat_twi2.h **** #define twiOff()      (PRR0 |= _BV(7))  // =1: TWI power is Off
  94:/home/arhat109/Arduino/libraries/Arhat/arhat_twi2.h **** 
  95:/home/arhat109/Arduino/libraries/Arhat/arhat_twi2.h **** /**
  96:/home/arhat109/Arduino/libraries/Arhat/arhat_twi2.h ****  * Set twi bit rate and prescaler: _twbr:[0..255], _twsr:[0..3]
  97:/home/arhat109/Arduino/libraries/Arhat/arhat_twi2.h ****  * ------------------------------------------------------------
  98:/home/arhat109/Arduino/libraries/Arhat/arhat_twi2.h ****  * _twsr = 3: scl freq. = [   490 .. 111_111] hz
GAS LISTING /tmp/ccChP33i.s 			page 3


  99:/home/arhat109/Arduino/libraries/Arhat/arhat_twi2.h ****  * _twsr = 2: scl freq. = [ 1_960 .. 333_333] hz
 100:/home/arhat109/Arduino/libraries/Arhat/arhat_twi2.h ****  * _twsr = 1: scl freq. = [ 7_782 .. 666_667] hz
 101:/home/arhat109/Arduino/libraries/Arhat/arhat_twi2.h ****  * _twsr = 0: scl freq. = [30_418 .. 888_889] hz
 102:/home/arhat109/Arduino/libraries/Arhat/arhat_twi2.h ****  * IF _twbr = 0: frequency equal 1 Mhz with any _twsr!
 103:/home/arhat109/Arduino/libraries/Arhat/arhat_twi2.h ****  *
 104:/home/arhat109/Arduino/libraries/Arhat/arhat_twi2.h ****  * @example twiSetRate(72,0) : use 100_000hz standart mode
 105:/home/arhat109/Arduino/libraries/Arhat/arhat_twi2.h ****  * @example twiSetRate(12,0) : use 400_000hz standart mode
 106:/home/arhat109/Arduino/libraries/Arhat/arhat_twi2.h ****  * @example twiSetRate(0,0)  : use 1 Mhz mode
 107:/home/arhat109/Arduino/libraries/Arhat/arhat_twi2.h ****  */
 108:/home/arhat109/Arduino/libraries/Arhat/arhat_twi2.h **** #define twiSetRate(_twbr, _twsr)      \
 109:/home/arhat109/Arduino/libraries/Arhat/arhat_twi2.h **** {                                     \
 110:/home/arhat109/Arduino/libraries/Arhat/arhat_twi2.h ****   _SFR_BYTE(TWSR) = (uint8_t)(_twsr); \
 111:/home/arhat109/Arduino/libraries/Arhat/arhat_twi2.h ****   TWBR = (uint8_t)(_twbr);            \
 112:/home/arhat109/Arduino/libraries/Arhat/arhat_twi2.h **** }
 113:/home/arhat109/Arduino/libraries/Arhat/arhat_twi2.h **** /**
 114:/home/arhat109/Arduino/libraries/Arhat/arhat_twi2.h ****  * –ú–∞–∫—Ä–æ—Å—ã —É–ø—Ä–∞–≤–ª–µ–Ω–∏—è –∞–≤—Ç–æ–º–∞—Ç–æ–º TWI: –ø–æ—Å–ª–µ–¥–Ω—è—è –∫–æ–º–∞–Ω–¥–∞ –≤
 115:/home/arhat109/Arduino/libraries/Arhat/arhat_twi2.h ****  *
 116:/home/arhat109/Arduino/libraries/Arhat/arhat_twi2.h ****  * @param bool ack -- –µ—Å—Ç—å –ª–∏ —Ä–µ–∂–∏–º—ã Slave, –Ω–∞–¥–æ –ª–∏ —Å–ª—É—à–∞—Ç—å —à–∏–Ω—É?
 117:/home/arhat109/Arduino/libraries/Arhat/arhat_twi2.h ****  *
 118:/home/arhat109/Arduino/libraries/Arhat/arhat_twi2.h ****  * twiStart()      -- –≤–∫–ª—é—á–∞–µ–º, —Ä–∞–∑—Ä–µ—à–∞–µ–º, —Å–±—Ä–æ—Å –ø—Ä–µ—Ä—ã–≤–∞–Ω–∏–µ(–∑–∞–ø—
 119:/home/arhat109/Arduino/libraries/Arhat/arhat_twi2.h ****  * twiReply()      -- –æ–Ω–æ –∂–µ, —Ç–æ–ª—å–∫–æ –±–µ–∑ —Å—Ç–∞—Ä—Ç–∞
 120:/home/arhat109/Arduino/libraries/Arhat/arhat_twi2.h ****  * twiReleaseBus() -- –≤–∫–ª—é—á–∞–µ–º, —Å–±—Ä–æ—Å –ø—Ä–µ—Ä—ã–≤–∞–Ω–∏–µ(–∑–∞–ø—É—Å–∫ –ö–ê), –∞ –≤–æ
 121:/home/arhat109/Arduino/libraries/Arhat/arhat_twi2.h ****  * twiStop()       -- –æ–Ω–æ –∂–µ, —Ç–æ–ª—å–∫–æ –µ—â—ë –∏ –æ—Ç–ø—Ä–∞–≤–ª—è–µ–º "—Å—Ç–æ–ø" –≤ —à–∏–Ω
 122:/home/arhat109/Arduino/libraries/Arhat/arhat_twi2.h ****  */
 123:/home/arhat109/Arduino/libraries/Arhat/arhat_twi2.h **** #define twiStart(ack)                   (_BV(TWEN)|_BV(TWINT)|_BV(TWIE)|_BV(TWSTA)|((ack)?_BV(TWEA)
 124:/home/arhat109/Arduino/libraries/Arhat/arhat_twi2.h **** #define twiReply(ack)                   (_BV(TWEN)|_BV(TWINT)|_BV(TWIE)|((ack)? _BV(TWEA):0))
 125:/home/arhat109/Arduino/libraries/Arhat/arhat_twi2.h **** #define twiReleaseBus(ack)              (_BV(TWEN)|_BV(TWINT)|((ack)? _BV(TWEA)|_BV(TWIE):0))
 126:/home/arhat109/Arduino/libraries/Arhat/arhat_twi2.h **** #define twiSetAddress(address, isGcall) (TWAR  = (uint8_t)(((address) << 1)|((isGcall)&0x01)))
 127:/home/arhat109/Arduino/libraries/Arhat/arhat_twi2.h **** #define twiSetMaskAddress(mask)         (TWAMR = (uint8_t)(mask))
 128:/home/arhat109/Arduino/libraries/Arhat/arhat_twi2.h **** #define twiStop(ack)                    \
 129:/home/arhat109/Arduino/libraries/Arhat/arhat_twi2.h **** {                                       \
 130:/home/arhat109/Arduino/libraries/Arhat/arhat_twi2.h ****   TWCR = _BV(TWSTO)|twiReleaseBus(ack); \
 131:/home/arhat109/Arduino/libraries/Arhat/arhat_twi2.h ****   while(TWCR & _BV(TWSTO));             \
 132:/home/arhat109/Arduino/libraries/Arhat/arhat_twi2.h ****   twiMode |= TWI_READY;                 \
 133:/home/arhat109/Arduino/libraries/Arhat/arhat_twi2.h **** }
 134:/home/arhat109/Arduino/libraries/Arhat/arhat_twi2.h **** 
 135:/home/arhat109/Arduino/libraries/Arhat/arhat_twi2.h **** #ifdef __cplusplus
 136:/home/arhat109/Arduino/libraries/Arhat/arhat_twi2.h ****     extern "C" {
 137:/home/arhat109/Arduino/libraries/Arhat/arhat_twi2.h **** #endif
 138:/home/arhat109/Arduino/libraries/Arhat/arhat_twi2.h **** // ------------ TWI internal variables ------------- //
 139:/home/arhat109/Arduino/libraries/Arhat/arhat_twi2.h **** 
 140:/home/arhat109/Arduino/libraries/Arhat/arhat_twi2.h **** enum TWI_Modes {
 141:/home/arhat109/Arduino/libraries/Arhat/arhat_twi2.h ****      TWI_IS_SLAVE  = 1                                  // have I slave mode too?
 142:/home/arhat109/Arduino/libraries/Arhat/arhat_twi2.h ****     ,TWI_SEND_STOP = 2                                  // is need send stop when Master is ending?
 143:/home/arhat109/Arduino/libraries/Arhat/arhat_twi2.h ****     ,TWI_READY     = 4                                  // previous work is ended
 144:/home/arhat109/Arduino/libraries/Arhat/arhat_twi2.h **** };
 145:/home/arhat109/Arduino/libraries/Arhat/arhat_twi2.h **** 
 146:/home/arhat109/Arduino/libraries/Arhat/arhat_twi2.h **** volatile uint8_t    twiMode;
 147:/home/arhat109/Arduino/libraries/Arhat/arhat_twi2.h **** volatile uint8_t    twiState;                           // state TWI automat
 148:/home/arhat109/Arduino/libraries/Arhat/arhat_twi2.h **** volatile uint8_t    twiSLARW;                           // address for send to (SLARW)
 149:/home/arhat109/Arduino/libraries/Arhat/arhat_twi2.h **** 
 150:/home/arhat109/Arduino/libraries/Arhat/arhat_twi2.h **** volatile uint8_t   twiMT_Count;                         // –æ—Å—Ç–∞—Ç–æ–∫ –±–∞–π—Ç –¥–ª—è –ø–µ—Ä–µ–
 151:/home/arhat109/Arduino/libraries/Arhat/arhat_twi2.h **** volatile uint8_t  * twiMT_Ptr;                          // —É–∫–∞–∑–∞—Ç–µ–ª—å —Ç–µ–∫—É—â–µ–≥–æ –±–∞
 152:/home/arhat109/Arduino/libraries/Arhat/arhat_twi2.h **** 
 153:/home/arhat109/Arduino/libraries/Arhat/arhat_twi2.h **** volatile uint8_t   twiRX_Count;                         // –æ—Å—Ç–∞—Ç–æ–∫ –±–∞–π—Ç –¥–ª—è –ø—Ä–∏–µ–
 154:/home/arhat109/Arduino/libraries/Arhat/arhat_twi2.h **** volatile uint8_t  * twiRX_Ptr;                          // —É–∫–∞–∑–∞—Ç–µ–ª—å —Ç–µ–∫—É—â–µ–≥–æ –±–∞
 155:/home/arhat109/Arduino/libraries/Arhat/arhat_twi2.h **** 
GAS LISTING /tmp/ccChP33i.s 			page 4


 156:/home/arhat109/Arduino/libraries/Arhat/arhat_twi2.h **** volatile uint8_t   twiST_Count;                         // –æ—Å—Ç–∞—Ç–æ–∫ –±–∞–π—Ç –¥–ª—è –ø–µ—Ä–µ–
 157:/home/arhat109/Arduino/libraries/Arhat/arhat_twi2.h **** volatile uint8_t  * twiST_Ptr;                          // —É–∫–∞–∑–∞—Ç–µ–ª—å —Ç–µ–∫—É—â–µ–≥–æ –±–∞
 158:/home/arhat109/Arduino/libraries/Arhat/arhat_twi2.h **** 
 159:/home/arhat109/Arduino/libraries/Arhat/arhat_twi2.h **** volatile void    (* twiHookRestart)(void) = 0;          // —É–∫–∞–∑–∞—Ç–µ–ª—å –Ω–∞ —Ñ—É–Ω–∫—Ü–∏—é –
 160:/home/arhat109/Arduino/libraries/Arhat/arhat_twi2.h **** volatile void    (* twiMasterReader)(void) = 0;         // —É–∫–∞–∑–∞—Ç–µ–ª—å –Ω–∞ —Ñ—É–Ω–∫—Ü–∏—é "
 161:/home/arhat109/Arduino/libraries/Arhat/arhat_twi2.h **** volatile void    (* twiSlaveReader)(void) = 0;          // —É–∫–∞–∑–∞—Ç–µ–ª—å –Ω–∞ —Ñ—É–Ω–∫—Ü–∏—é "
 162:/home/arhat109/Arduino/libraries/Arhat/arhat_twi2.h **** volatile void    (* twiSlaveWriter)(void) = 0;          // —É–∫–∞–∑–∞—Ç–µ–ª—å –Ω–∞ —Ñ—É–Ω–∫—Ü–∏—é "
 163:/home/arhat109/Arduino/libraries/Arhat/arhat_twi2.h **** 
 164:/home/arhat109/Arduino/libraries/Arhat/arhat_twi2.h **** #ifdef TWI_LOG_ON
 165:/home/arhat109/Arduino/libraries/Arhat/arhat_twi2.h **** 
 166:/home/arhat109/Arduino/libraries/Arhat/arhat_twi2.h **** typedef struct {
 167:/home/arhat109/Arduino/libraries/Arhat/arhat_twi2.h ****     uint16_t   starts,restarts,stops,losts,noslarw,mtx,mrx,srx,grx,stx;
 168:/home/arhat109/Arduino/libraries/Arhat/arhat_twi2.h **** } TWI_Stat;
 169:/home/arhat109/Arduino/libraries/Arhat/arhat_twi2.h **** #define ptrTWI_Stat(ptr)  ((TWI_Stat *)(ptr))
 170:/home/arhat109/Arduino/libraries/Arhat/arhat_twi2.h **** static volatile TWI_Stat    twiStatistic;
 171:/home/arhat109/Arduino/libraries/Arhat/arhat_twi2.h **** 
 172:/home/arhat109/Arduino/libraries/Arhat/arhat_twi2.h **** #endif // TWI_LOG_ON
 173:/home/arhat109/Arduino/libraries/Arhat/arhat_twi2.h **** 
 174:/home/arhat109/Arduino/libraries/Arhat/arhat_twi2.h **** // ------------ TWI functions ------------- //
 175:/home/arhat109/Arduino/libraries/Arhat/arhat_twi2.h **** 
 176:/home/arhat109/Arduino/libraries/Arhat/arhat_twi2.h **** /**
 177:/home/arhat109/Arduino/libraries/Arhat/arhat_twi2.h ****  * Autocalculate and set twi prescaler and bit rate
 178:/home/arhat109/Arduino/libraries/Arhat/arhat_twi2.h ****  * 1Mhz      .. 30.418khz : TWSR=0!
 179:/home/arhat109/Arduino/libraries/Arhat/arhat_twi2.h ****  * 30.42khz  ..  7.782khz : TWSR=1
 180:/home/arhat109/Arduino/libraries/Arhat/arhat_twi2.h ****  *  7.782khz ..  1.960khz : TWSR=2
 181:/home/arhat109/Arduino/libraries/Arhat/arhat_twi2.h ****  *  1/960khz ..  0.490khz : TWSR=3
 182:/home/arhat109/Arduino/libraries/Arhat/arhat_twi2.h ****  */
 183:/home/arhat109/Arduino/libraries/Arhat/arhat_twi2.h **** void twiSpeed(uint32_t freq)
 184:/home/arhat109/Arduino/libraries/Arhat/arhat_twi2.h **** {
  17               		.loc 1 184 0
  18               		.cfi_startproc
  19               	.LVL0:
  20               	/* prologue: function */
  21               	/* frame size = 0 */
  22               	/* stack size = 0 */
  23               	.L__stack_usage = 0
  24 0000 9B01      		movw r18,r22
  25 0002 AC01      		movw r20,r24
  26               	.LBB2:
 185:/home/arhat109/Arduino/libraries/Arhat/arhat_twi2.h ****     uint16_t bitRate = (F_CPU / freq) - 16;
  27               		.loc 1 185 0
  28 0004 60E0      		ldi r22,0
  29 0006 74E2      		ldi r23,lo8(36)
  30 0008 84EF      		ldi r24,lo8(-12)
  31 000a 90E0      		ldi r25,0
  32               	.LVL1:
  33 000c 0E94 0000 		call __udivmodsi4
  34               	.LVL2:
  35 0010 2051      		subi r18,16
  36 0012 3109      		sbc r19,__zero_reg__
  37               	.LVL3:
 186:/home/arhat109/Arduino/libraries/Arhat/arhat_twi2.h ****     uint8_t  bitMul  = 0;
  38               		.loc 1 186 0
  39 0014 80E0      		ldi r24,0
  40               	.LVL4:
  41               	.L2:
 187:/home/arhat109/Arduino/libraries/Arhat/arhat_twi2.h **** 
GAS LISTING /tmp/ccChP33i.s 			page 5


 188:/home/arhat109/Arduino/libraries/Arhat/arhat_twi2.h ****     while( (bitRate > 511) && (bitMul < 3) ){
  42               		.loc 1 188 0 discriminator 1
  43 0016 2115      		cp r18,__zero_reg__
  44 0018 92E0      		ldi r25,2
  45 001a 3907      		cpc r19,r25
  46 001c 00F0      		brlo .L3
  47               		.loc 1 188 0 is_stmt 0 discriminator 2
  48 001e 8330      		cpi r24,lo8(3)
  49 0020 01F0      		breq .L3
 189:/home/arhat109/Arduino/libraries/Arhat/arhat_twi2.h ****         bitRate /= 4; bitRate += 1; bitMul++;
  50               		.loc 1 189 0 is_stmt 1
  51 0022 3695      		lsr r19
  52 0024 2795      		ror r18
  53 0026 3695      		lsr r19
  54 0028 2795      		ror r18
  55               	.LVL5:
  56 002a 2F5F      		subi r18,-1
  57 002c 3F4F      		sbci r19,-1
  58               	.LVL6:
  59 002e 8F5F      		subi r24,lo8(-(1))
  60               	.LVL7:
  61 0030 00C0      		rjmp .L2
  62               	.L3:
 190:/home/arhat109/Arduino/libraries/Arhat/arhat_twi2.h ****     }
 191:/home/arhat109/Arduino/libraries/Arhat/arhat_twi2.h ****     bitRate /= 2;
  63               		.loc 1 191 0
  64 0032 3695      		lsr r19
  65 0034 2795      		ror r18
  66               	.LVL8:
 192:/home/arhat109/Arduino/libraries/Arhat/arhat_twi2.h ****     if( bitRate > 255 ) return;
  67               		.loc 1 192 0
  68 0036 2F3F      		cpi r18,-1
  69 0038 3105      		cpc r19,__zero_reg__
  70 003a 01F0      		breq .+2
  71 003c 00F4      		brsh .L1
 193:/home/arhat109/Arduino/libraries/Arhat/arhat_twi2.h ****     twiSetRate(bitRate, bitMul);
  72               		.loc 1 193 0
  73 003e 8093 B900 		sts 185,r24
  74 0042 2093 B800 		sts 184,r18
  75               	.L1:
  76 0046 0895      		ret
  77               	.LBE2:
  78               		.cfi_endproc
  79               	.LFE102:
  80               		.size	twiSpeed, .-twiSpeed
  81               		.section	.text.twiSetup,"ax",@progbits
  82               	.global	twiSetup
  83               		.type	twiSetup, @function
  84               	twiSetup:
  85               	.LFB103:
 194:/home/arhat109/Arduino/libraries/Arhat/arhat_twi2.h **** }
 195:/home/arhat109/Arduino/libraries/Arhat/arhat_twi2.h **** 
 196:/home/arhat109/Arduino/libraries/Arhat/arhat_twi2.h **** /**
 197:/home/arhat109/Arduino/libraries/Arhat/arhat_twi2.h ****  * for Arduino setup() as Master or Slave or Both modes
 198:/home/arhat109/Arduino/libraries/Arhat/arhat_twi2.h ****  * freq:[490 .. 1 000 000], mode:[0,TWI_IS_SLAVE]
 199:/home/arhat109/Arduino/libraries/Arhat/arhat_twi2.h ****  */
 200:/home/arhat109/Arduino/libraries/Arhat/arhat_twi2.h **** void twiSetup(uint32_t freq, uint8_t mode)
GAS LISTING /tmp/ccChP33i.s 			page 6


 201:/home/arhat109/Arduino/libraries/Arhat/arhat_twi2.h **** {
  86               		.loc 1 201 0
  87               		.cfi_startproc
  88               	.LVL9:
  89 0000 CF93      		push r28
  90               	.LCFI0:
  91               		.cfi_def_cfa_offset 4
  92               		.cfi_offset 28, -3
  93 0002 DF93      		push r29
  94               	.LCFI1:
  95               		.cfi_def_cfa_offset 5
  96               		.cfi_offset 29, -4
  97 0004 1F92      		push __zero_reg__
  98               	.LCFI2:
  99               		.cfi_def_cfa_offset 6
 100 0006 CDB7      		in r28,__SP_L__
 101 0008 DEB7      		in r29,__SP_H__
 102               	.LCFI3:
 103               		.cfi_def_cfa_register 28
 104               	/* prologue: function */
 105               	/* frame size = 1 */
 106               	/* stack size = 3 */
 107               	.L__stack_usage = 3
 202:/home/arhat109/Arduino/libraries/Arhat/arhat_twi2.h ****     digitalWrite(I2C_SDA, HIGH);                                  // internal pullup is ON.
 108               		.loc 1 202 0
 109 000a 599A      		sbi 0xb,1
 203:/home/arhat109/Arduino/libraries/Arhat/arhat_twi2.h ****     digitalWrite(I2C_SCL, HIGH);
 110               		.loc 1 203 0
 111 000c 589A      		sbi 0xb,0
 204:/home/arhat109/Arduino/libraries/Arhat/arhat_twi2.h ****     twiSpeed(freq);                                               // set bitrate and prescaler for 
 112               		.loc 1 204 0
 113 000e 4983      		std Y+1,r20
 114 0010 0E94 0000 		call twiSpeed
 115               	.LVL10:
 205:/home/arhat109/Arduino/libraries/Arhat/arhat_twi2.h ****     twiMode = mode;
 116               		.loc 1 205 0
 117 0014 4981      		ldd r20,Y+1
 118 0016 4093 0000 		sts twiMode,r20
 206:/home/arhat109/Arduino/libraries/Arhat/arhat_twi2.h ****     TWCR = _BV(TWEN)|_BV(TWIE)|((mode&TWI_IS_SLAVE)?_BV(TWEA):0); // module, acks, and interrupt is
 119               		.loc 1 206 0
 120 001a 40FF      		sbrs r20,0
 121 001c 00C0      		rjmp .L9
 122 001e 85E4      		ldi r24,lo8(69)
 123 0020 00C0      		rjmp .L8
 124               	.L9:
 125 0022 85E0      		ldi r24,lo8(5)
 126               	.L8:
 127               		.loc 1 206 0 is_stmt 0 discriminator 3
 128 0024 8093 BC00 		sts 188,r24
 129               	/* epilogue start */
 207:/home/arhat109/Arduino/libraries/Arhat/arhat_twi2.h **** }
 130               		.loc 1 207 0 is_stmt 1 discriminator 3
 131 0028 0F90      		pop __tmp_reg__
 132 002a DF91      		pop r29
 133 002c CF91      		pop r28
 134 002e 0895      		ret
 135               		.cfi_endproc
GAS LISTING /tmp/ccChP33i.s 			page 7


 136               	.LFE103:
 137               		.size	twiSetup, .-twiSetup
 138               		.section	.text.twiSendStop,"ax",@progbits
 139               	.global	twiSendStop
 140               		.type	twiSendStop, @function
 141               	twiSendStop:
 142               	.LFB104:
 208:/home/arhat109/Arduino/libraries/Arhat/arhat_twi2.h **** 
 209:/home/arhat109/Arduino/libraries/Arhat/arhat_twi2.h **** /**
 210:/home/arhat109/Arduino/libraries/Arhat/arhat_twi2.h ****  * for ISR(TWI): control restart conditions in all modes:
 211:/home/arhat109/Arduino/libraries/Arhat/arhat_twi2.h ****  *
 212:/home/arhat109/Arduino/libraries/Arhat/arhat_twi2.h ****  * 1. –û—Å–≤–æ–±–æ–∂–¥–∞—Ç—å —à–∏–Ω—É, –∏–ª–∏ –Ω–∞–¥–æ –µ—â—ë (–Ω–∞–ø—Ä. –ø—Ä–∏–µ–º –ø–æ—Å–ª–µ –ø–µ
 213:/home/arhat109/Arduino/libraries/Arhat/arhat_twi2.h ****  * –¥–∞: –°–µ–∞–Ω—Å –∑–∞–≤–µ—Ä—à–µ–Ω. –ñ–¥–µ–º –ø—Ä—è–º–æ —Ç—É—Ç –ø—Ä–æ—Ö–æ–∂–¥–µ–Ω–∏—è —Å—Ç–æ–ø–∞!
 214:/home/arhat109/Arduino/libraries/Arhat/arhat_twi2.h ****  * –Ω–µ—Ç, —Ä–µ—Å—Ç–∞—Ä—Ç:
 215:/home/arhat109/Arduino/libraries/Arhat/arhat_twi2.h ****  * .. –µ—Å—Ç—å –•—É–∫? –ø—Ä–æ—Ü–µ–¥—É—Ä–∞ –ø–æ–¥–≥–æ—Ç–æ–≤–∫–∏ —Å–ª–µ–¥. –ø–æ—Å—ã–ª–∫–∏: —É–∫–∞–∑–∞
 216:/home/arhat109/Arduino/libraries/Arhat/arhat_twi2.h ****  * .. –∞ –Ω–µ—Ç –•—É–∫–∞! –¢–∏–ø–æ–≤–æ–π —Ä–µ–∂–∏–º "—á—Ç–µ–Ω–∏–µ –ø–æ—Å–ª–µ –∑–∞–ø–∏—Å–∏"
 217:/home/arhat109/Arduino/libraries/Arhat/arhat_twi2.h ****  * –≤ –ª—é–±–æ–º —Å–ª—É—á–∞–µ –æ—Ç–ø—Ä–∞–≤–ª—è–µ–º restart
 218:/home/arhat109/Arduino/libraries/Arhat/arhat_twi2.h ****  *
 219:/home/arhat109/Arduino/libraries/Arhat/arhat_twi2.h ****  * @return command for TWCR
 220:/home/arhat109/Arduino/libraries/Arhat/arhat_twi2.h ****  *//*
 221:/home/arhat109/Arduino/libraries/Arhat/arhat_twi2.h **** #define twiSendStop(_md, _cr)                                \
 222:/home/arhat109/Arduino/libraries/Arhat/arhat_twi2.h **** {                                                            \
 223:/home/arhat109/Arduino/libraries/Arhat/arhat_twi2.h ****     if (_md & TWI_SEND_STOP)                                 \
 224:/home/arhat109/Arduino/libraries/Arhat/arhat_twi2.h ****     {                                                        \
 225:/home/arhat109/Arduino/libraries/Arhat/arhat_twi2.h ****         TWCR = _BV(TWSTO)|twiReleaseBus(_md & TWI_IS_SLAVE); \
 226:/home/arhat109/Arduino/libraries/Arhat/arhat_twi2.h ****         while(TWCR & _BV(TWSTO));                            \
 227:/home/arhat109/Arduino/libraries/Arhat/arhat_twi2.h ****         twiMode |= TWI_READY;                                \
 228:/home/arhat109/Arduino/libraries/Arhat/arhat_twi2.h ****         return;                                              \
 229:/home/arhat109/Arduino/libraries/Arhat/arhat_twi2.h ****     }else{                                                   \
 230:/home/arhat109/Arduino/libraries/Arhat/arhat_twi2.h ****         if( twiHookRestart ){                                \
 231:/home/arhat109/Arduino/libraries/Arhat/arhat_twi2.h ****             twiHookRestart();                                \
 232:/home/arhat109/Arduino/libraries/Arhat/arhat_twi2.h ****         } else {                                             \
 233:/home/arhat109/Arduino/libraries/Arhat/arhat_twi2.h ****             twiSLARW |= TWI_READ;                            \
 234:/home/arhat109/Arduino/libraries/Arhat/arhat_twi2.h ****         }                                                    \
 235:/home/arhat109/Arduino/libraries/Arhat/arhat_twi2.h ****         _cr = twiStart(_md & TWI_IS_SLAVE);                  \
 236:/home/arhat109/Arduino/libraries/Arhat/arhat_twi2.h ****     }                                                        \
 237:/home/arhat109/Arduino/libraries/Arhat/arhat_twi2.h **** }
 238:/home/arhat109/Arduino/libraries/Arhat/arhat_twi2.h **** */
 239:/home/arhat109/Arduino/libraries/Arhat/arhat_twi2.h **** void twiSendStop(uint8_t _md)
 240:/home/arhat109/Arduino/libraries/Arhat/arhat_twi2.h **** {
 143               		.loc 1 240 0
 144               		.cfi_startproc
 145               	.LVL11:
 146 0000 CF93      		push r28
 147               	.LCFI4:
 148               		.cfi_def_cfa_offset 4
 149               		.cfi_offset 28, -3
 150               	/* prologue: function */
 151               	/* frame size = 0 */
 152               	/* stack size = 1 */
 153               	.L__stack_usage = 1
 154 0002 C82F      		mov r28,r24
 155 0004 C170      		andi r28,lo8(1)
 241:/home/arhat109/Arduino/libraries/Arhat/arhat_twi2.h ****     if (_md & TWI_SEND_STOP)
 156               		.loc 1 241 0
 157 0006 81FF      		sbrs r24,1
 158 0008 00C0      		rjmp .L11
GAS LISTING /tmp/ccChP33i.s 			page 8


 242:/home/arhat109/Arduino/libraries/Arhat/arhat_twi2.h ****     {
 243:/home/arhat109/Arduino/libraries/Arhat/arhat_twi2.h ****         TWCR = _BV(TWSTO)|twiReleaseBus(_md & TWI_IS_SLAVE);
 159               		.loc 1 243 0
 160 000a CC23      		tst r28
 161 000c 01F0      		breq .L19
 162 000e 85ED      		ldi r24,lo8(-43)
 163               	.LVL12:
 164 0010 00C0      		rjmp .L12
 165               	.LVL13:
 166               	.L19:
 167 0012 84E9      		ldi r24,lo8(-108)
 168               	.LVL14:
 169               	.L12:
 170               		.loc 1 243 0 is_stmt 0 discriminator 3
 171 0014 8093 BC00 		sts 188,r24
 172               	.L14:
 244:/home/arhat109/Arduino/libraries/Arhat/arhat_twi2.h ****         while(TWCR & _BV(TWSTO));
 173               		.loc 1 244 0 is_stmt 1 discriminator 1
 174 0018 8091 BC00 		lds r24,188
 175 001c 84FD      		sbrc r24,4
 176 001e 00C0      		rjmp .L14
 245:/home/arhat109/Arduino/libraries/Arhat/arhat_twi2.h ****         twiMode |= TWI_READY;
 177               		.loc 1 245 0
 178 0020 8091 0000 		lds r24,twiMode
 179 0024 8460      		ori r24,lo8(4)
 180 0026 8093 0000 		sts twiMode,r24
 181 002a 00C0      		rjmp .L10
 182               	.LVL15:
 183               	.L11:
 184               	.LBB5:
 185               	.LBB6:
 246:/home/arhat109/Arduino/libraries/Arhat/arhat_twi2.h ****     }else{
 247:/home/arhat109/Arduino/libraries/Arhat/arhat_twi2.h ****         if( twiHookRestart ){
 186               		.loc 1 247 0
 187 002c E091 0000 		lds r30,twiHookRestart
 188 0030 F091 0000 		lds r31,twiHookRestart+1
 189 0034 3097      		sbiw r30,0
 190 0036 01F0      		breq .L16
 248:/home/arhat109/Arduino/libraries/Arhat/arhat_twi2.h ****             twiHookRestart();
 191               		.loc 1 248 0
 192 0038 1995      		eicall
 193               	.LVL16:
 194 003a 00C0      		rjmp .L17
 195               	.LVL17:
 196               	.L16:
 249:/home/arhat109/Arduino/libraries/Arhat/arhat_twi2.h ****         } else {
 250:/home/arhat109/Arduino/libraries/Arhat/arhat_twi2.h ****             twiSLARW |= TWI_READ;
 197               		.loc 1 250 0
 198 003c 8091 0000 		lds r24,twiSLARW
 199               	.LVL18:
 200 0040 8160      		ori r24,lo8(1)
 201 0042 8093 0000 		sts twiSLARW,r24
 202               	.L17:
 251:/home/arhat109/Arduino/libraries/Arhat/arhat_twi2.h ****         }
 252:/home/arhat109/Arduino/libraries/Arhat/arhat_twi2.h ****         TWCR = twiStart(_md & TWI_IS_SLAVE);
 203               		.loc 1 252 0
 204 0046 CC23      		tst r28
GAS LISTING /tmp/ccChP33i.s 			page 9


 205 0048 01F0      		breq .L20
 206 004a 85EE      		ldi r24,lo8(-27)
 207 004c 00C0      		rjmp .L18
 208               	.L20:
 209 004e 85EA      		ldi r24,lo8(-91)
 210               	.L18:
 211 0050 8093 BC00 		sts 188,r24
 212               	.LVL19:
 213               	.L10:
 214               	/* epilogue start */
 215               	.LBE6:
 216               	.LBE5:
 253:/home/arhat109/Arduino/libraries/Arhat/arhat_twi2.h ****     }
 254:/home/arhat109/Arduino/libraries/Arhat/arhat_twi2.h **** }
 217               		.loc 1 254 0
 218 0054 CF91      		pop r28
 219 0056 0895      		ret
 220               		.cfi_endproc
 221               	.LFE104:
 222               		.size	twiSendStop, .-twiSendStop
 223               		.section	.text.__vector_39,"ax",@progbits
 224               	.global	__vector_39
 225               		.type	__vector_39, @function
 226               	__vector_39:
 227               	.LFB105:
 255:/home/arhat109/Arduino/libraries/Arhat/arhat_twi2.h **** 
 256:/home/arhat109/Arduino/libraries/Arhat/arhat_twi2.h **** /**
 257:/home/arhat109/Arduino/libraries/Arhat/arhat_twi2.h ****  * ISR for TWI interface: realised master and slave modes
 258:/home/arhat109/Arduino/libraries/Arhat/arhat_twi2.h ****  * ------------------------------------------------------
 259:/home/arhat109/Arduino/libraries/Arhat/arhat_twi2.h ****  */
 260:/home/arhat109/Arduino/libraries/Arhat/arhat_twi2.h **** ISR(TWI_vect)
 261:/home/arhat109/Arduino/libraries/Arhat/arhat_twi2.h **** {
 228               		.loc 1 261 0
 229               		.cfi_startproc
 230 0000 1F92      		push r1
 231               	.LCFI5:
 232               		.cfi_def_cfa_offset 4
 233               		.cfi_offset 1, -3
 234 0002 0F92      		push r0
 235               	.LCFI6:
 236               		.cfi_def_cfa_offset 5
 237               		.cfi_offset 0, -4
 238 0004 0FB6      		in r0,__SREG__
 239 0006 0F92      		push r0
 240 0008 1124      		clr __zero_reg__
 241 000a 0BB6      		in r0,__RAMPZ__
 242 000c 0F92      		push r0
 243 000e 2F93      		push r18
 244               	.LCFI7:
 245               		.cfi_def_cfa_offset 6
 246               		.cfi_offset 18, -5
 247 0010 3F93      		push r19
 248               	.LCFI8:
 249               		.cfi_def_cfa_offset 7
 250               		.cfi_offset 19, -6
 251 0012 4F93      		push r20
 252               	.LCFI9:
GAS LISTING /tmp/ccChP33i.s 			page 10


 253               		.cfi_def_cfa_offset 8
 254               		.cfi_offset 20, -7
 255 0014 5F93      		push r21
 256               	.LCFI10:
 257               		.cfi_def_cfa_offset 9
 258               		.cfi_offset 21, -8
 259 0016 6F93      		push r22
 260               	.LCFI11:
 261               		.cfi_def_cfa_offset 10
 262               		.cfi_offset 22, -9
 263 0018 7F93      		push r23
 264               	.LCFI12:
 265               		.cfi_def_cfa_offset 11
 266               		.cfi_offset 23, -10
 267 001a 8F93      		push r24
 268               	.LCFI13:
 269               		.cfi_def_cfa_offset 12
 270               		.cfi_offset 24, -11
 271 001c 9F93      		push r25
 272               	.LCFI14:
 273               		.cfi_def_cfa_offset 13
 274               		.cfi_offset 25, -12
 275 001e AF93      		push r26
 276               	.LCFI15:
 277               		.cfi_def_cfa_offset 14
 278               		.cfi_offset 26, -13
 279 0020 BF93      		push r27
 280               	.LCFI16:
 281               		.cfi_def_cfa_offset 15
 282               		.cfi_offset 27, -14
 283 0022 EF93      		push r30
 284               	.LCFI17:
 285               		.cfi_def_cfa_offset 16
 286               		.cfi_offset 30, -15
 287 0024 FF93      		push r31
 288               	.LCFI18:
 289               		.cfi_def_cfa_offset 17
 290               		.cfi_offset 31, -16
 291               	/* prologue: Signal */
 292               	/* frame size = 0 */
 293               	/* stack size = 16 */
 294               	.L__stack_usage = 16
 295               	.LBB7:
 262:/home/arhat109/Arduino/libraries/Arhat/arhat_twi2.h ****     uint8_t _cr;
 263:/home/arhat109/Arduino/libraries/Arhat/arhat_twi2.h ****     uint8_t _md = twiMode;
 296               		.loc 1 263 0
 297 0026 8091 0000 		lds r24,twiMode
 298               	.LVL20:
 264:/home/arhat109/Arduino/libraries/Arhat/arhat_twi2.h ****     uint8_t _st = twiState=TWI_STATUS;
 299               		.loc 1 264 0
 300 002a 2091 B900 		lds r18,185
 301 002e 922F      		mov r25,r18
 302 0030 987F      		andi r25,lo8(-8)
 303 0032 9093 0000 		sts twiState,r25
 304               	.LVL21:
 265:/home/arhat109/Arduino/libraries/Arhat/arhat_twi2.h **** 
 266:/home/arhat109/Arduino/libraries/Arhat/arhat_twi2.h **** #if defined(TWI_ON) && ((TWI_ON & TWI_IS_SLAVE_TX)||(TWI_ON & TWI_IS_SLAVE_RX))
GAS LISTING /tmp/ccChP33i.s 			page 11


 267:/home/arhat109/Arduino/libraries/Arhat/arhat_twi2.h ****     if( _st >= TWI_SR_SLA_ACK )
 268:/home/arhat109/Arduino/libraries/Arhat/arhat_twi2.h ****     {
 269:/home/arhat109/Arduino/libraries/Arhat/arhat_twi2.h **** #if (TWI_ON & TWI_IS_SLAVE_TX)
 270:/home/arhat109/Arduino/libraries/Arhat/arhat_twi2.h ****         if( (_st == TWI_ST_DATA_NACK) || (_st == TWI_ST_LAST_DATA) )
 271:/home/arhat109/Arduino/libraries/Arhat/arhat_twi2.h ****         {
 272:/home/arhat109/Arduino/libraries/Arhat/arhat_twi2.h ****             // ST: –ë—ã–ª –ø–æ—Å–ª–µ–¥–Ω–∏–π –±–∞–π—Ç, –º–∞—Å—Ç–µ—Ä –Ω–∞–µ–ª—Å—è ..
 273:/home/arhat109/Arduino/libraries/Arhat/arhat_twi2.h ****             // ST: –ë—ã–ª –Ω–∞—à –ø–æ—Å–ª–µ–¥–Ω–∏–π –±–∞–π—Ç: –ø—Ä–µ–¥—É–ø—Ä–µ–∂–¥–∞–ª–∏ –º–∞—Å—Ç–µ
 274:/home/arhat109/Arduino/libraries/Arhat/arhat_twi2.h ****             twiSlaveWriter();                                   // –•—É–∫ - –æ–±—è–∑–∞—Ç–µ–ª–µ–Ω!
 275:/home/arhat109/Arduino/libraries/Arhat/arhat_twi2.h ****             _md=twiMode;                                        // –≤–æ–∑–º–æ–∂–Ω–æ –∏–∑–º–µ–Ω–µ–Ω–
 276:/home/arhat109/Arduino/libraries/Arhat/arhat_twi2.h ****             twiSendStop(_md); return;
 277:/home/arhat109/Arduino/libraries/Arhat/arhat_twi2.h ****         }else{
 278:/home/arhat109/Arduino/libraries/Arhat/arhat_twi2.h ****             if( (_st == TWI_ST_ARB_LOST_SLA_ACK) || (_st == TWI_ST_SLA_ACK || _st == TWI_ST_DATA_AC
 279:/home/arhat109/Arduino/libraries/Arhat/arhat_twi2.h ****             {
 280:/home/arhat109/Arduino/libraries/Arhat/arhat_twi2.h ****                 // ST: –ú–æ–µ–≥–æ –º–∞—Å—Ç–µ—Ä–∞ –∑–∞—Ç–∫–Ω—É–ª–∏ –∏ –ø—Ä–æ—Å—è—Ç –¥–∞–Ω–Ω—ã–µ ..
 281:/home/arhat109/Arduino/libraries/Arhat/arhat_twi2.h ****                 // ST: –ú–æ–π –∞–¥—Ä–µ—Å, –Ω–∞—á–∏–Ω–∞–µ–º ..
 282:/home/arhat109/Arduino/libraries/Arhat/arhat_twi2.h ****                 // ST: –û—Ç–ø—Ä–∞–≤–ª–µ–Ω–æ —É—Å–ø–µ—à–Ω–æ, –ø—Ä–æ–¥–æ–ª–∂–∞–µ–º ..
 283:/home/arhat109/Arduino/libraries/Arhat/arhat_twi2.h ****                 TWDR = *twiST_Ptr++;
 284:/home/arhat109/Arduino/libraries/Arhat/arhat_twi2.h ****                 _cr = twiReply(--twiST_Count);
 285:/home/arhat109/Arduino/libraries/Arhat/arhat_twi2.h ****             }else{
 286:/home/arhat109/Arduino/libraries/Arhat/arhat_twi2.h **** #endif // TWI_ON::TWI_IS_SLAVE_TX
 287:/home/arhat109/Arduino/libraries/Arhat/arhat_twi2.h **** #if (TWI_ON & TWI_IS_SLAVE_RX)
 288:/home/arhat109/Arduino/libraries/Arhat/arhat_twi2.h ****                 if( (_st == TWI_SR_GCALL_DATA_NACK) || (_st == TWI_SR_DATA_NACK) || (_st == TWI_SR_
 289:/home/arhat109/Arduino/libraries/Arhat/arhat_twi2.h ****                 {
 290:/home/arhat109/Arduino/libraries/Arhat/arhat_twi2.h ****                     if( (_st == TWI_SR_GCALL_DATA_NACK) || (_st == TWI_SR_DATA_NACK) )
 291:/home/arhat109/Arduino/libraries/Arhat/arhat_twi2.h ****                     {
 292:/home/arhat109/Arduino/libraries/Arhat/arhat_twi2.h ****                         // SR: –£–ü–°. GCall - —Ç—É–¥–∞ –∂–µ.
 293:/home/arhat109/Arduino/libraries/Arhat/arhat_twi2.h ****                         // SR: –£–ü–°. –ü–æ–ª—É—á–µ–Ω –±–∞–π—Ç, –º–∞—Å—Ç–µ—Ä—É —É–∂–µ –±—ã–ª –æ—Ç–ø
 294:/home/arhat109/Arduino/libraries/Arhat/arhat_twi2.h ****                         *twiRX_Ptr = TWDR;
 295:/home/arhat109/Arduino/libraries/Arhat/arhat_twi2.h ****                     }
 296:/home/arhat109/Arduino/libraries/Arhat/arhat_twi2.h ****                     // SR: –û–±–Ω–∞—Ä—É–∂–µ–Ω stop –∏–ª–∏ restart –≤ –ø—Ä–æ—Ü–µ—Å—Å–µ –ø—Ä–∏–µ–º–∞ 
 297:/home/arhat109/Arduino/libraries/Arhat/arhat_twi2.h ****                     twiSlaveReader();                           // –•—É–∫ –æ–±—è–∑–∞—Ç–µ–ª–µ–Ω! —ç—
 298:/home/arhat109/Arduino/libraries/Arhat/arhat_twi2.h ****                     _md=twiMode;                                // –≤–æ–∑–º–æ–∂–Ω–æ –∏–∑–º–µ–Ω–µ–Ω–
 299:/home/arhat109/Arduino/libraries/Arhat/arhat_twi2.h ****                     twiSendStop(_md); return;
 300:/home/arhat109/Arduino/libraries/Arhat/arhat_twi2.h ****                 }else{
 301:/home/arhat109/Arduino/libraries/Arhat/arhat_twi2.h ****                     if( (_st == TWI_SR_GCALL_DATA_ACK) || (_st == TWI_SR_DATA_ACK) )
 302:/home/arhat109/Arduino/libraries/Arhat/arhat_twi2.h ****                     {
 303:/home/arhat109/Arduino/libraries/Arhat/arhat_twi2.h ****                         // SR: –ø—Ä–∏—à–µ–ª –±–∞–π—Ç –≤—Å–µ–º - –∞–Ω–∞–ª–æ–≥–∏—á–Ω–æ
 304:/home/arhat109/Arduino/libraries/Arhat/arhat_twi2.h ****                         // SR: –ø—Ä–∏—à–µ–ª –±–∞–π—Ç, –º–æ–∂–Ω–æ –µ—â—ë –ø—Ä–∏–Ω—è—Ç—å
 305:/home/arhat109/Arduino/libraries/Arhat/arhat_twi2.h ****                         *(twiRX_Ptr++) = TWDR;
 306:/home/arhat109/Arduino/libraries/Arhat/arhat_twi2.h ****                     }
 307:/home/arhat109/Arduino/libraries/Arhat/arhat_twi2.h ****                     // TWI_SR_ARB_LOST_SLA_ACK   SR: –ú–∞—Å—Ç–µ—Ä –ø–æ—Ç–µ—Ä—è–ª —à–∏–Ω—É: –Ω–µ—Ç –
 308:/home/arhat109/Arduino/libraries/Arhat/arhat_twi2.h ****                     // TWI_SR_ARB_LOST_GCALL_ACK SR: –í—ã–∑–æ–≤ –≤—Å–µ–º –ø–æ—Ç–µ—Ä—è–ª —à–∏–Ω—É (–
 309:/home/arhat109/Arduino/libraries/Arhat/arhat_twi2.h ****                     // TWI_SR_SLA_ACK            SR: –ê–¥—Ä–µ—Å –ø—Ä–∏–Ω—è—Ç, –µ—â—ë —Ç–æ–ª—å–∫–æ –
 310:/home/arhat109/Arduino/libraries/Arhat/arhat_twi2.h ****                     // TWI_SR_GCALL_ACK          SR: –í—ã–∑–æ–≤ –≤—Å–µ–º –ø—Ä–∏–Ω—è—Ç –æ–Ω–æ –∂–µ
 311:/home/arhat109/Arduino/libraries/Arhat/arhat_twi2.h ****                     _cr = twiReply(--twiRX_Count);              // .. –ø—Ä–∏–Ω—è–ª–∏ –±–∞–π—Ç –∏ –æ
 312:/home/arhat109/Arduino/libraries/Arhat/arhat_twi2.h ****                 }
 313:/home/arhat109/Arduino/libraries/Arhat/arhat_twi2.h **** #endif // TWI_ON::TWI_IS_SLAVE_RX
 314:/home/arhat109/Arduino/libraries/Arhat/arhat_twi2.h **** #if (TWI_ON & TWI_IS_SLAVE_TX)
 315:/home/arhat109/Arduino/libraries/Arhat/arhat_twi2.h ****             }
 316:/home/arhat109/Arduino/libraries/Arhat/arhat_twi2.h ****         }
 317:/home/arhat109/Arduino/libraries/Arhat/arhat_twi2.h **** #endif // TWI_ON::TWI_IS_SLAVE_TX
 318:/home/arhat109/Arduino/libraries/Arhat/arhat_twi2.h ****     }else{
 319:/home/arhat109/Arduino/libraries/Arhat/arhat_twi2.h **** 
 320:/home/arhat109/Arduino/libraries/Arhat/arhat_twi2.h **** #endif // TWI_ON::TWI_SLAVE..
 321:/home/arhat109/Arduino/libraries/Arhat/arhat_twi2.h **** #if defined(TWI_ON) && (TWI_ON & TWI_MASTER_TX)
 322:/home/arhat109/Arduino/libraries/Arhat/arhat_twi2.h ****         // Master Transmiter or Reciever modes
 323:/home/arhat109/Arduino/libraries/Arhat/arhat_twi2.h ****         if( (_st == TWI_START) || (_st == TWI_REP_START) )
GAS LISTING /tmp/ccChP33i.s 			page 12


 305               		.loc 1 323 0
 306 0036 9830      		cpi r25,lo8(8)
 307 0038 01F0      		breq .L22
 308               		.loc 1 323 0 is_stmt 0 discriminator 1
 309 003a 9031      		cpi r25,lo8(16)
 310 003c 01F4      		brne .L23
 311               	.L22:
 324:/home/arhat109/Arduino/libraries/Arhat/arhat_twi2.h ****         {
 325:/home/arhat109/Arduino/libraries/Arhat/arhat_twi2.h ****             // MT,MR:: –ü—Ä–æ—à–ª–∞ –æ—Ç–ø—Ä–∞–≤–∫–∞ —Å—Ç–∞—Ä—Ç–æ–≤–æ–π –ø–æ—Å—ã–ª–∫–∏
 326:/home/arhat109/Arduino/libraries/Arhat/arhat_twi2.h ****             // MT,MR:: –ü—Ä–æ—à–ª–∞ –æ—Ç–ø—Ä–∞–≤–∫–∞ –ø–æ–≤—Ç–æ—Ä–Ω–æ–≥–æ —Å—Ç–∞—Ä—Ç–∞
 327:/home/arhat109/Arduino/libraries/Arhat/arhat_twi2.h ****             TWDR = twiSLARW;
 312               		.loc 1 327 0 is_stmt 1
 313 003e 9091 0000 		lds r25,twiSLARW
 314               	.LVL22:
 315 0042 00C0      		rjmp .L56
 316               	.LVL23:
 317               	.L23:
 328:/home/arhat109/Arduino/libraries/Arhat/arhat_twi2.h ****             _cr = twiReply(_md & TWI_IS_SLAVE);
 329:/home/arhat109/Arduino/libraries/Arhat/arhat_twi2.h ****         }else{
 330:/home/arhat109/Arduino/libraries/Arhat/arhat_twi2.h ****             if( (_st == TWI_MT_SLA_NACK) || (_st == TWI_MT_DATA_NACK) )
 318               		.loc 1 330 0
 319 0044 287E      		andi r18,lo8(-24)
 320 0046 2032      		cpi r18,lo8(32)
 321 0048 01F4      		brne .+2
 322 004a 00C0      		rjmp .L35
 331:/home/arhat109/Arduino/libraries/Arhat/arhat_twi2.h ****             {
 332:/home/arhat109/Arduino/libraries/Arhat/arhat_twi2.h ****                 // TWI_MT_DATA_NACK MT:: –£–ø—Å. data NACK: –ü–æ–ª—É—á–∞—Ç–µ–ª—å –Ω–µ —Ö–æ—Ç–∏—Ç?
 333:/home/arhat109/Arduino/libraries/Arhat/arhat_twi2.h ****                 // TWI_MT_SLA_NACK  MT:: –£–ø—Å. –ü–æ–ª—É—á–∞—Ç–µ–ª—å NACK .. –Ω–µ –æ—Ç–∫–ª–∏–∫–∞–µ
 334:/home/arhat109/Arduino/libraries/Arhat/arhat_twi2.h ****                 twiSendStop(_md); return;
 335:/home/arhat109/Arduino/libraries/Arhat/arhat_twi2.h ****             }
 336:/home/arhat109/Arduino/libraries/Arhat/arhat_twi2.h ****             if( (_st == TWI_MT_SLA_ACK)  || (_st == TWI_MT_DATA_ACK) )
 323               		.loc 1 336 0
 324 004c 9831      		cpi r25,lo8(24)
 325 004e 01F0      		breq .L28
 326               		.loc 1 336 0 is_stmt 0 discriminator 1
 327 0050 9832      		cpi r25,lo8(40)
 328 0052 01F4      		brne .L29
 329               	.L28:
 337:/home/arhat109/Arduino/libraries/Arhat/arhat_twi2.h ****             {
 338:/home/arhat109/Arduino/libraries/Arhat/arhat_twi2.h ****                 // MT: –ê–¥—Ä–µ—Å –ø–æ–ª—É—á–∞—Ç–µ–ª—è –æ—Ç–ø—Ä–∞–≤–ª–µ–Ω —É—Å–ø–µ—à–Ω–æ, –Ω–∞—á–∏–
 339:/home/arhat109/Arduino/libraries/Arhat/arhat_twi2.h ****                 // MT: –ë–∞–π—Ç –¥–∞–Ω–Ω—ã—Ö –æ—Ç–ø—Ä–∞–≤–ª–µ–Ω, –ø—Ä–æ–¥–æ–ª–∂–∞–µ–º
 340:/home/arhat109/Arduino/libraries/Arhat/arhat_twi2.h ****                 if( twiMT_Count-- ){
 330               		.loc 1 340 0 is_stmt 1
 331 0054 9091 0000 		lds r25,twiMT_Count
 332               	.LVL24:
 333 0058 2FEF      		ldi r18,lo8(-1)
 334 005a 290F      		add r18,r25
 335 005c 2093 0000 		sts twiMT_Count,r18
 336               	.LVL25:
 337 0060 9923      		tst r25
 338 0062 01F4      		brne .+2
 339 0064 00C0      		rjmp .L35
 341:/home/arhat109/Arduino/libraries/Arhat/arhat_twi2.h ****                     TWDR = *twiMT_Ptr++;
 340               		.loc 1 341 0
 341 0066 E091 0000 		lds r30,twiMT_Ptr
 342 006a F091 0000 		lds r31,twiMT_Ptr+1
 343 006e 9F01      		movw r18,r30
GAS LISTING /tmp/ccChP33i.s 			page 13


 344 0070 2F5F      		subi r18,-1
 345 0072 3F4F      		sbci r19,-1
 346 0074 3093 0000 		sts twiMT_Ptr+1,r19
 347 0078 2093 0000 		sts twiMT_Ptr,r18
 348 007c 9081      		ld r25,Z
 349               	.L56:
 350 007e 9093 BB00 		sts 187,r25
 342:/home/arhat109/Arduino/libraries/Arhat/arhat_twi2.h ****                     _cr = twiReply(_md & TWI_IS_SLAVE);
 351               		.loc 1 342 0
 352 0082 80FF      		sbrs r24,0
 353 0084 00C0      		rjmp .L39
 354 0086 00C0      		rjmp .L24
 355               	.LVL26:
 356               	.L29:
 343:/home/arhat109/Arduino/libraries/Arhat/arhat_twi2.h ****                 }else{
 344:/home/arhat109/Arduino/libraries/Arhat/arhat_twi2.h ****                     twiSendStop(_md); return;
 345:/home/arhat109/Arduino/libraries/Arhat/arhat_twi2.h ****                 }
 346:/home/arhat109/Arduino/libraries/Arhat/arhat_twi2.h ****             }else{
 347:/home/arhat109/Arduino/libraries/Arhat/arhat_twi2.h **** #endif // TWI_ON::TWI_MASTER_TX
 348:/home/arhat109/Arduino/libraries/Arhat/arhat_twi2.h **** #if defined(TWI_ON) && (TWI_ON & TWI_MASTER_RX)
 349:/home/arhat109/Arduino/libraries/Arhat/arhat_twi2.h ****                 if( _st == TWI_MTR_ARB_LOST )
 357               		.loc 1 349 0
 358 0088 9833      		cpi r25,lo8(56)
 359 008a 01F4      		brne .L31
 350:/home/arhat109/Arduino/libraries/Arhat/arhat_twi2.h ****                 {
 351:/home/arhat109/Arduino/libraries/Arhat/arhat_twi2.h ****                     // MT,MR: –£–ø—Å. –ú–∞—Å—Ç–µ—Ä –ø–æ—Ç–µ—Ä—è–ª —à–∏–Ω—É: –æ—Å–≤–æ–±–æ–∂–¥–∞–µ–º 
 352:/home/arhat109/Arduino/libraries/Arhat/arhat_twi2.h ****                     _md |= TWI_READY;
 360               		.loc 1 352 0
 361 008c 982F      		mov r25,r24
 362               	.LVL27:
 363 008e 9460      		ori r25,lo8(4)
 364               	.LVL28:
 353:/home/arhat109/Arduino/libraries/Arhat/arhat_twi2.h ****                     _cr = twiReleaseBus(_md & TWI_IS_SLAVE);
 365               		.loc 1 353 0
 366 0090 80FF      		sbrs r24,0
 367 0092 00C0      		rjmp .L38
 352:/home/arhat109/Arduino/libraries/Arhat/arhat_twi2.h ****                     _cr = twiReleaseBus(_md & TWI_IS_SLAVE);
 368               		.loc 1 352 0
 369 0094 892F      		mov r24,r25
 370 0096 00C0      		rjmp .L24
 371               	.LVL29:
 372               	.L31:
 354:/home/arhat109/Arduino/libraries/Arhat/arhat_twi2.h ****                 }else{
 355:/home/arhat109/Arduino/libraries/Arhat/arhat_twi2.h ****                     if( (_st == TWI_MR_DATA_ACK) || (_st == TWI_MR_SLA_ACK) )
 373               		.loc 1 355 0
 374 0098 9035      		cpi r25,lo8(80)
 375 009a 01F0      		breq .L32
 376               		.loc 1 355 0 is_stmt 0 discriminator 1
 377 009c 9034      		cpi r25,lo8(64)
 378 009e 01F4      		brne .L55
 379 00a0 00C0      		rjmp .L33
 380               	.L32:
 356:/home/arhat109/Arduino/libraries/Arhat/arhat_twi2.h ****                     {
 357:/home/arhat109/Arduino/libraries/Arhat/arhat_twi2.h ****                         if( _st == TWI_MR_DATA_ACK ){
 358:/home/arhat109/Arduino/libraries/Arhat/arhat_twi2.h ****                             // MR: –±–∞–π—Ç –ø—Ä–∏–Ω—è—Ç, ACK –æ—Ç–ø—Ä–∞–≤–ª–µ–Ω
 359:/home/arhat109/Arduino/libraries/Arhat/arhat_twi2.h ****                             *(twiRX_Ptr++) = TWDR;
 381               		.loc 1 359 0 is_stmt 1
GAS LISTING /tmp/ccChP33i.s 			page 14


 382 00a2 E091 0000 		lds r30,twiRX_Ptr
 383 00a6 F091 0000 		lds r31,twiRX_Ptr+1
 384 00aa 9F01      		movw r18,r30
 385 00ac 2F5F      		subi r18,-1
 386 00ae 3F4F      		sbci r19,-1
 387 00b0 3093 0000 		sts twiRX_Ptr+1,r19
 388 00b4 2093 0000 		sts twiRX_Ptr,r18
 389 00b8 9091 BB00 		lds r25,187
 390               	.LVL30:
 391 00bc 9083      		st Z,r25
 392               	.LVL31:
 393               	.L33:
 360:/home/arhat109/Arduino/libraries/Arhat/arhat_twi2.h ****                         }
 361:/home/arhat109/Arduino/libraries/Arhat/arhat_twi2.h ****                         // MR: –û—Ç–ø—Ä–∞–≤–∏—Ç–µ–ª—å –Ω–∞–π–¥–µ–Ω, –Ω–∞—á–∏–Ω–∞–µ–º –ø—Ä–∏–µ–º
 362:/home/arhat109/Arduino/libraries/Arhat/arhat_twi2.h ****                         _cr = twiReply( --twiRX_Count );        // .. –ú–æ–∂–Ω–æ –µ—â—ë –ø—Ä–∏–Ω—è—
 394               		.loc 1 362 0
 395 00be 9091 0000 		lds r25,twiRX_Count
 396 00c2 9150      		subi r25,lo8(-(-1))
 397 00c4 9093 0000 		sts twiRX_Count,r25
 398 00c8 9923      		tst r25
 399 00ca 01F0      		breq .L39
 400 00cc 00C0      		rjmp .L24
 401               	.LVL32:
 402               	.L55:
 363:/home/arhat109/Arduino/libraries/Arhat/arhat_twi2.h ****                     }else{
 364:/home/arhat109/Arduino/libraries/Arhat/arhat_twi2.h ****                         if( _st == TWI_ERROR ) return;
 403               		.loc 1 364 0
 404 00ce 9923      		tst r25
 405 00d0 01F0      		breq .L21
 365:/home/arhat109/Arduino/libraries/Arhat/arhat_twi2.h ****                         if( _st == TWI_MR_DATA_NACK )
 406               		.loc 1 365 0
 407 00d2 9835      		cpi r25,lo8(88)
 408 00d4 01F4      		brne .L35
 366:/home/arhat109/Arduino/libraries/Arhat/arhat_twi2.h ****                         {
 367:/home/arhat109/Arduino/libraries/Arhat/arhat_twi2.h ****                             // MR: –£–ø—Å. –ü–æ–ª—É—á–µ–Ω –ø–æ—Å–ª–µ–¥–Ω–∏–π –±–∞–π—Ç –¥–∞–ª—å—à–µ 
 368:/home/arhat109/Arduino/libraries/Arhat/arhat_twi2.h ****                             *twiRX_Ptr = TWDR;
 409               		.loc 1 368 0
 410 00d6 E091 0000 		lds r30,twiRX_Ptr
 411 00da F091 0000 		lds r31,twiRX_Ptr+1
 412 00de 8091 BB00 		lds r24,187
 413               	.LVL33:
 414 00e2 8083      		st Z,r24
 369:/home/arhat109/Arduino/libraries/Arhat/arhat_twi2.h ****                             if( twiMasterReader ) twiMasterReader();
 415               		.loc 1 369 0
 416 00e4 E091 0000 		lds r30,twiMasterReader
 417 00e8 F091 0000 		lds r31,twiMasterReader+1
 418 00ec 3097      		sbiw r30,0
 419 00ee 01F0      		breq .L36
 420               		.loc 1 369 0 is_stmt 0 discriminator 1
 421 00f0 1995      		eicall
 422               	.LVL34:
 423               	.L36:
 370:/home/arhat109/Arduino/libraries/Arhat/arhat_twi2.h **** //                            goto TWI_RET_HOOK;
 371:/home/arhat109/Arduino/libraries/Arhat/arhat_twi2.h ****                             _md=twiMode;                        // –≤–æ–∑–º–æ–∂–Ω–æ –∏–∑–º–µ–Ω–µ–Ω–
 424               		.loc 1 371 0 is_stmt 1 discriminator 3
 425 00f2 8091 0000 		lds r24,twiMode
 426               	.LVL35:
GAS LISTING /tmp/ccChP33i.s 			page 15


 427               	.L35:
 372:/home/arhat109/Arduino/libraries/Arhat/arhat_twi2.h ****                         }
 373:/home/arhat109/Arduino/libraries/Arhat/arhat_twi2.h ****                         // All other Master states: stop/restart if need
 374:/home/arhat109/Arduino/libraries/Arhat/arhat_twi2.h ****                         // TWI_MR_SLA_NACK  MR:: –£–ø—Å. –û—Ç–ø—Ä–∞–≤–∏—Ç–µ–ª—å NACK .. –Ω–µ –æ—Ç–∫
 375:/home/arhat109/Arduino/libraries/Arhat/arhat_twi2.h ****                         twiSendStop(_md); return;
 428               		.loc 1 375 0
 429 00f6 0E94 0000 		call twiSendStop
 430               	.LVL36:
 431 00fa 00C0      		rjmp .L21
 432               	.LVL37:
 433               	.L24:
 328:/home/arhat109/Arduino/libraries/Arhat/arhat_twi2.h ****         }else{
 434               		.loc 1 328 0
 435 00fc 95EC      		ldi r25,lo8(-59)
 436 00fe 00C0      		rjmp .L25
 437               	.LVL38:
 438               	.L38:
 352:/home/arhat109/Arduino/libraries/Arhat/arhat_twi2.h ****                     _cr = twiReleaseBus(_md & TWI_IS_SLAVE);
 439               		.loc 1 352 0
 440 0100 892F      		mov r24,r25
 353:/home/arhat109/Arduino/libraries/Arhat/arhat_twi2.h ****                 }else{
 441               		.loc 1 353 0
 442 0102 94E8      		ldi r25,lo8(-124)
 443               	.LVL39:
 444 0104 00C0      		rjmp .L25
 445               	.LVL40:
 446               	.L39:
 362:/home/arhat109/Arduino/libraries/Arhat/arhat_twi2.h ****                     }else{
 447               		.loc 1 362 0
 448 0106 95E8      		ldi r25,lo8(-123)
 449               	.L25:
 450               	.LVL41:
 376:/home/arhat109/Arduino/libraries/Arhat/arhat_twi2.h ****                     }
 377:/home/arhat109/Arduino/libraries/Arhat/arhat_twi2.h ****                 }
 378:/home/arhat109/Arduino/libraries/Arhat/arhat_twi2.h **** #endif // TWI_ON::TWI_MASTER_RX
 379:/home/arhat109/Arduino/libraries/Arhat/arhat_twi2.h **** #if defined(TWI_ON) && (TWI_ON&TWI_MASTER_TX)
 380:/home/arhat109/Arduino/libraries/Arhat/arhat_twi2.h ****             }
 381:/home/arhat109/Arduino/libraries/Arhat/arhat_twi2.h ****         }
 382:/home/arhat109/Arduino/libraries/Arhat/arhat_twi2.h **** #endif // TWI_ON::TWI_MASTER_TX
 383:/home/arhat109/Arduino/libraries/Arhat/arhat_twi2.h **** #if defined(TWI_ON) && ((TWI_ON & TWI_IS_SLAVE_TX)||(TWI_ON & TWI_IS_SLAVE_RX))
 384:/home/arhat109/Arduino/libraries/Arhat/arhat_twi2.h ****     }
 385:/home/arhat109/Arduino/libraries/Arhat/arhat_twi2.h **** #endif // TWI_SLAVE_ON
 386:/home/arhat109/Arduino/libraries/Arhat/arhat_twi2.h ****     twiMode = _md;
 451               		.loc 1 386 0
 452 0108 8093 0000 		sts twiMode,r24
 387:/home/arhat109/Arduino/libraries/Arhat/arhat_twi2.h ****     TWCR = _cr;
 453               		.loc 1 387 0
 454 010c 9093 BC00 		sts 188,r25
 455               	.LVL42:
 456               	.L21:
 457               	/* epilogue start */
 458               	.LBE7:
 388:/home/arhat109/Arduino/libraries/Arhat/arhat_twi2.h **** } //end ISR()
 459               		.loc 1 388 0
 460 0110 FF91      		pop r31
 461 0112 EF91      		pop r30
 462 0114 BF91      		pop r27
GAS LISTING /tmp/ccChP33i.s 			page 16


 463 0116 AF91      		pop r26
 464 0118 9F91      		pop r25
 465 011a 8F91      		pop r24
 466 011c 7F91      		pop r23
 467 011e 6F91      		pop r22
 468 0120 5F91      		pop r21
 469 0122 4F91      		pop r20
 470 0124 3F91      		pop r19
 471 0126 2F91      		pop r18
 472 0128 0F90      		pop r0
 473 012a 0BBE      		out __RAMPZ__,r0
 474 012c 0F90      		pop r0
 475 012e 0FBE      		out __SREG__,r0
 476 0130 0F90      		pop r0
 477 0132 1F90      		pop r1
 478 0134 1895      		reti
 479               		.cfi_endproc
 480               	.LFE105:
 481               		.size	__vector_39, .-__vector_39
 482               		.section	.text._twiStartTo,"ax",@progbits
 483               	.global	_twiStartTo
 484               		.type	_twiStartTo, @function
 485               	_twiStartTo:
 486               	.LFB106:
 389:/home/arhat109/Arduino/libraries/Arhat/arhat_twi2.h **** 
 390:/home/arhat109/Arduino/libraries/Arhat/arhat_twi2.h **** // -------------------------              (PROTECTED)             ------------------------- //
 391:/home/arhat109/Arduino/libraries/Arhat/arhat_twi2.h **** // –í–Ω—É—Ç—Ä–µ–Ω–Ω–∏–µ –º–µ—Ç–æ–¥—ã –∏–Ω—Ç–µ—Ä—Ñ–µ–π—Å–∞, –º–æ–≥—É—Ç –ø—Ä–∏–≥–æ–¥–∏—Ç—Å—è –¥–ª—è —
 392:/home/arhat109/Arduino/libraries/Arhat/arhat_twi2.h **** // ---------------------------------------------------------------------------------------- //
 393:/home/arhat109/Arduino/libraries/Arhat/arhat_twi2.h **** 
 394:/home/arhat109/Arduino/libraries/Arhat/arhat_twi2.h **** /**
 395:/home/arhat109/Arduino/libraries/Arhat/arhat_twi2.h ****  * INTERNAL:: –ü—Ä–æ—Å—Ç–∞—è –ø–µ—Ä–µ–¥–∞—á–∞. –ó–∞–ø–∏—Å—å –∞–¥—Ä–µ—Å–∞ —Å–æ–±–µ—Å–µ–¥–Ω–∏–∫–∞ –∏ 
 396:/home/arhat109/Arduino/libraries/Arhat/arhat_twi2.h ****  *
 397:/home/arhat109/Arduino/libraries/Arhat/arhat_twi2.h ****  * @see twiWrite(), twiRead()
 398:/home/arhat109/Arduino/libraries/Arhat/arhat_twi2.h ****  */
 399:/home/arhat109/Arduino/libraries/Arhat/arhat_twi2.h **** void _twiStartTo(uint8_t address)
 400:/home/arhat109/Arduino/libraries/Arhat/arhat_twi2.h **** {
 487               		.loc 1 400 0
 488               		.cfi_startproc
 489               	.LVL43:
 490               	/* prologue: function */
 491               	/* frame size = 0 */
 492               	/* stack size = 0 */
 493               	.L__stack_usage = 0
 401:/home/arhat109/Arduino/libraries/Arhat/arhat_twi2.h ****     twiSLARW = address;                                 // –†–µ–∂–∏–º –ø–æ—Å—Ç–∞–≤–ª—è–µ—Ç—Å—è –≤–º
 494               		.loc 1 401 0
 495 0000 8093 0000 		sts twiSLARW,r24
 402:/home/arhat109/Arduino/libraries/Arhat/arhat_twi2.h ****     twiMode |= TWI_SEND_STOP;                           // —Ç–æ–ª—å–∫–æ 1 –±–∏—Ç! –ú–æ–≥–ª–∏ –±—ã—Ç
 496               		.loc 1 402 0
 497 0004 8091 0000 		lds r24,twiMode
 498               	.LVL44:
 499 0008 8260      		ori r24,lo8(2)
 500 000a 8093 0000 		sts twiMode,r24
 501               	.LVL45:
 403:/home/arhat109/Arduino/libraries/Arhat/arhat_twi2.h ****     TWCR = twiStart(twiMode & TWI_IS_SLAVE);
 502               		.loc 1 403 0
 503 000e 8091 0000 		lds r24,twiMode
 504 0012 80FF      		sbrs r24,0
GAS LISTING /tmp/ccChP33i.s 			page 17


 505 0014 00C0      		rjmp .L59
 506 0016 85EE      		ldi r24,lo8(-27)
 507 0018 00C0      		rjmp .L58
 508               	.L59:
 509 001a 85EA      		ldi r24,lo8(-91)
 510               	.L58:
 511               		.loc 1 403 0 is_stmt 0 discriminator 3
 512 001c 8093 BC00 		sts 188,r24
 513 0020 0895      		ret
 514               		.cfi_endproc
 515               	.LFE106:
 516               		.size	_twiStartTo, .-_twiStartTo
 517               		.section	.text._twiStartRe,"ax",@progbits
 518               	.global	_twiStartRe
 519               		.type	_twiStartRe, @function
 520               	_twiStartRe:
 521               	.LFB107:
 404:/home/arhat109/Arduino/libraries/Arhat/arhat_twi2.h **** }
 405:/home/arhat109/Arduino/libraries/Arhat/arhat_twi2.h **** 
 406:/home/arhat109/Arduino/libraries/Arhat/arhat_twi2.h **** /**
 407:/home/arhat109/Arduino/libraries/Arhat/arhat_twi2.h ****  * INTERNAL:: –ü–µ—Ä–µ–¥–∞—á–∞ —Å —Ä–µ—Å—Ç–∞—Ä—Ç–æ–º. –ó–∞–ø–∏—Å—å –∞–¥—Ä–µ—Å–∞ —Å–æ–±–µ—Å–µ–¥–Ω–∏–
 408:/home/arhat109/Arduino/libraries/Arhat/arhat_twi2.h ****  *
 409:/home/arhat109/Arduino/libraries/Arhat/arhat_twi2.h ****  * @see twiWrite(), twiRead()
 410:/home/arhat109/Arduino/libraries/Arhat/arhat_twi2.h ****  */
 411:/home/arhat109/Arduino/libraries/Arhat/arhat_twi2.h **** void _twiStartRe(uint8_t address)
 412:/home/arhat109/Arduino/libraries/Arhat/arhat_twi2.h **** {
 522               		.loc 1 412 0 is_stmt 1
 523               		.cfi_startproc
 524               	.LVL46:
 525               	/* prologue: function */
 526               	/* frame size = 0 */
 527               	/* stack size = 0 */
 528               	.L__stack_usage = 0
 413:/home/arhat109/Arduino/libraries/Arhat/arhat_twi2.h ****     twiSLARW = address;                                 // –†–µ–∂–∏–º –ø–æ—Å—Ç–∞–≤–ª—è–µ—Ç—Å—è –≤–º
 529               		.loc 1 413 0
 530 0000 8093 0000 		sts twiSLARW,r24
 414:/home/arhat109/Arduino/libraries/Arhat/arhat_twi2.h ****     twiMode &= ~TWI_SEND_STOP;                          // —Ç–æ–ª—å–∫–æ 1 –±–∏—Ç! –ú–æ–≥–ª–∏ –±—ã—Ç
 531               		.loc 1 414 0
 532 0004 8091 0000 		lds r24,twiMode
 533               	.LVL47:
 534 0008 8D7F      		andi r24,lo8(-3)
 535 000a 8093 0000 		sts twiMode,r24
 536               	.LVL48:
 415:/home/arhat109/Arduino/libraries/Arhat/arhat_twi2.h ****     TWCR = twiStart(twiMode & TWI_IS_SLAVE);
 537               		.loc 1 415 0
 538 000e 8091 0000 		lds r24,twiMode
 539 0012 80FF      		sbrs r24,0
 540 0014 00C0      		rjmp .L62
 541 0016 85EE      		ldi r24,lo8(-27)
 542 0018 00C0      		rjmp .L61
 543               	.L62:
 544 001a 85EA      		ldi r24,lo8(-91)
 545               	.L61:
 546               		.loc 1 415 0 is_stmt 0 discriminator 3
 547 001c 8093 BC00 		sts 188,r24
 548 0020 0895      		ret
 549               		.cfi_endproc
GAS LISTING /tmp/ccChP33i.s 			page 18


 550               	.LFE107:
 551               		.size	_twiStartRe, .-_twiStartRe
 552               		.section	.text.twiWrite,"ax",@progbits
 553               	.global	twiWrite
 554               		.type	twiWrite, @function
 555               	twiWrite:
 556               	.LFB108:
 416:/home/arhat109/Arduino/libraries/Arhat/arhat_twi2.h **** }
 417:/home/arhat109/Arduino/libraries/Arhat/arhat_twi2.h **** 
 418:/home/arhat109/Arduino/libraries/Arhat/arhat_twi2.h **** #define _twiWaitReady()             {while(!(TWI_READY & twiMode)); twiMode &= ~TWI_READY;}
 419:/home/arhat109/Arduino/libraries/Arhat/arhat_twi2.h **** #define _twiMT_Buffer(data, length) (twiMT_Ptr=(volatile uint8_t *)(data), twiMT_Count=(volatile ui
 420:/home/arhat109/Arduino/libraries/Arhat/arhat_twi2.h **** #define _twiRX_Buffer(data, length) (twiRX_Ptr=(volatile uint8_t *)(data), twiRX_Count=(volatile ui
 421:/home/arhat109/Arduino/libraries/Arhat/arhat_twi2.h **** #define _twiST_Buffer(data, length) (twiST_Ptr=(volatile uint8_t *)(data), twiST_Count=(volatile ui
 422:/home/arhat109/Arduino/libraries/Arhat/arhat_twi2.h **** 
 423:/home/arhat109/Arduino/libraries/Arhat/arhat_twi2.h **** // -------------------------                PUBLIC                ------------------------- //
 424:/home/arhat109/Arduino/libraries/Arhat/arhat_twi2.h **** // ---------------------------------------------------------------------------------------- //
 425:/home/arhat109/Arduino/libraries/Arhat/arhat_twi2.h **** 
 426:/home/arhat109/Arduino/libraries/Arhat/arhat_twi2.h **** /**
 427:/home/arhat109/Arduino/libraries/Arhat/arhat_twi2.h ****  * Master-TX:: –ü–µ—Ä–µ–¥–∞—á–∞ length –±–∞–π—Ç –ø–æ –∞–¥—Ä–µ—Å—É –ø–æ–ª—É—á–∞—Ç–µ–ª—è. –¢–æ–ª—å–∫–
 428:/home/arhat109/Arduino/libraries/Arhat/arhat_twi2.h ****  */
 429:/home/arhat109/Arduino/libraries/Arhat/arhat_twi2.h **** void twiWrite(uint8_t address, const uint8_t * data, uint8_t length)
 430:/home/arhat109/Arduino/libraries/Arhat/arhat_twi2.h **** {
 557               		.loc 1 430 0 is_stmt 1
 558               		.cfi_startproc
 559               	/* prologue: function */
 560               	/* frame size = 0 */
 561               	/* stack size = 0 */
 562               	.L__stack_usage = 0
 563               	.LVL49:
 564               	.L65:
 431:/home/arhat109/Arduino/libraries/Arhat/arhat_twi2.h ****     _twiWaitReady();                                    // –ñ–¥–µ–º –∑–∞–≤–µ—Ä—à–µ–Ω–∏—è –ø—Ä–µ–¥—ã
 565               		.loc 1 431 0 discriminator 1
 566 0000 9091 0000 		lds r25,twiMode
 567 0004 92FF      		sbrs r25,2
 568 0006 00C0      		rjmp .L65
 569               		.loc 1 431 0 is_stmt 0 discriminator 2
 570 0008 9091 0000 		lds r25,twiMode
 571 000c 9B7F      		andi r25,lo8(-5)
 572 000e 9093 0000 		sts twiMode,r25
 432:/home/arhat109/Arduino/libraries/Arhat/arhat_twi2.h ****     _twiMT_Buffer(data, length);
 573               		.loc 1 432 0 is_stmt 1 discriminator 2
 574 0012 7093 0000 		sts twiMT_Ptr+1,r23
 575 0016 6093 0000 		sts twiMT_Ptr,r22
 576 001a 4093 0000 		sts twiMT_Count,r20
 433:/home/arhat109/Arduino/libraries/Arhat/arhat_twi2.h ****     _twiStartTo( (address<<1) | TWI_WRITE );            // –†–µ–∂–∏–º –ø–µ—Ä–µ–¥–∞—á–∏!
 577               		.loc 1 433 0 discriminator 2
 578 001e 880F      		lsl r24
 579               	.LVL50:
 580 0020 0C94 0000 		jmp _twiStartTo
 581               	.LVL51:
 582               		.cfi_endproc
 583               	.LFE108:
 584               		.size	twiWrite, .-twiWrite
 585               		.section	.text.twiRead,"ax",@progbits
 586               	.global	twiRead
 587               		.type	twiRead, @function
 588               	twiRead:
GAS LISTING /tmp/ccChP33i.s 			page 19


 589               	.LFB109:
 434:/home/arhat109/Arduino/libraries/Arhat/arhat_twi2.h **** }
 435:/home/arhat109/Arduino/libraries/Arhat/arhat_twi2.h **** 
 436:/home/arhat109/Arduino/libraries/Arhat/arhat_twi2.h **** /**
 437:/home/arhat109/Arduino/libraries/Arhat/arhat_twi2.h ****  * MASTER-RX:: –ü—Ä–∏–µ–º length –±–∞–π—Ç –∏–∑ –∞–¥—Ä–µ—Å–∞ –æ—Ç–ø—Ä–∞–≤–∏—Ç–µ–ª—è. –¢–æ–ª—å–∫–æ –∑
 438:/home/arhat109/Arduino/libraries/Arhat/arhat_twi2.h ****  */
 439:/home/arhat109/Arduino/libraries/Arhat/arhat_twi2.h **** void twiRead(uint8_t address, uint8_t * data, uint8_t length)
 440:/home/arhat109/Arduino/libraries/Arhat/arhat_twi2.h **** {
 590               		.loc 1 440 0
 591               		.cfi_startproc
 592               	/* prologue: function */
 593               	/* frame size = 0 */
 594               	/* stack size = 0 */
 595               	.L__stack_usage = 0
 596               	.LVL52:
 597               	.L68:
 441:/home/arhat109/Arduino/libraries/Arhat/arhat_twi2.h ****     _twiWaitReady();                                    // –ñ–¥–µ–º –∑–∞–≤–µ—Ä—à–µ–Ω–∏—è –ø—Ä–µ–¥—ã
 598               		.loc 1 441 0 discriminator 1
 599 0000 9091 0000 		lds r25,twiMode
 600 0004 92FF      		sbrs r25,2
 601 0006 00C0      		rjmp .L68
 602               		.loc 1 441 0 is_stmt 0 discriminator 2
 603 0008 9091 0000 		lds r25,twiMode
 604 000c 9B7F      		andi r25,lo8(-5)
 605 000e 9093 0000 		sts twiMode,r25
 442:/home/arhat109/Arduino/libraries/Arhat/arhat_twi2.h ****     _twiRX_Buffer(data, length);
 606               		.loc 1 442 0 is_stmt 1 discriminator 2
 607 0012 7093 0000 		sts twiRX_Ptr+1,r23
 608 0016 6093 0000 		sts twiRX_Ptr,r22
 609 001a 4093 0000 		sts twiRX_Count,r20
 443:/home/arhat109/Arduino/libraries/Arhat/arhat_twi2.h ****     _twiStartTo( (address<<1) | TWI_READ );             // –†–µ–∂–∏–º –ø—Ä–∏–µ–º–∞ –¥–∞–Ω–Ω—ã—Ö!
 610               		.loc 1 443 0 discriminator 2
 611 001e 880F      		lsl r24
 612               	.LVL53:
 613 0020 8160      		ori r24,lo8(1)
 614 0022 0C94 0000 		jmp _twiStartTo
 615               	.LVL54:
 616               		.cfi_endproc
 617               	.LFE109:
 618               		.size	twiRead, .-twiRead
 619               		.section	.text.twiRAW,"ax",@progbits
 620               	.global	twiRAW
 621               		.type	twiRAW, @function
 622               	twiRAW:
 623               	.LFB110:
 444:/home/arhat109/Arduino/libraries/Arhat/arhat_twi2.h **** }
 445:/home/arhat109/Arduino/libraries/Arhat/arhat_twi2.h **** 
 446:/home/arhat109/Arduino/libraries/Arhat/arhat_twi2.h **** /**
 447:/home/arhat109/Arduino/libraries/Arhat/arhat_twi2.h ****  * Master Read-after-Write:: –ß—Ç–µ–Ω–∏–µ –¥–∞–Ω–Ω—ã—Ö –ø–æ—Å–ª–µ –æ—Ç–ø—Ä–∞–≤–∫–∏ –∫–æ–º–∞–Ω–¥—ã. 
 448:/home/arhat109/Arduino/libraries/Arhat/arhat_twi2.h ****  * !!! –ù–µ —Å–æ–≤–º–µ—Å—Ç–∏–º–æ —Å Slave Receive Mode - –±—É—Ñ–µ—Ä –ø—Ä–∏–µ–º–∞ –æ–±—â–∏–π !!!
 449:/home/arhat109/Arduino/libraries/Arhat/arhat_twi2.h ****  */
 450:/home/arhat109/Arduino/libraries/Arhat/arhat_twi2.h **** void twiRAW(uint8_t address                             // –∞–¥—Ä–µ—Å —É—Å—Ç—Ä–æ–π—Å—Ç–≤–∞
 451:/home/arhat109/Arduino/libraries/Arhat/arhat_twi2.h **** , uint8_t* command, uint8_t clength                     // –∫–æ–º–∞–Ω–¥–∞ –∏ –µ—ë –¥–ª–∏–Ω–∞
 452:/home/arhat109/Arduino/libraries/Arhat/arhat_twi2.h **** , uint8_t* data, uint8_t dlength                        // –±—É—Ñ–µ—Ä –ø—Ä–∏–µ–º–∞ –¥–∞–Ω–Ω—ã—Ö –∏ 
 453:/home/arhat109/Arduino/libraries/Arhat/arhat_twi2.h **** ){
 624               		.loc 1 453 0
 625               		.cfi_startproc
GAS LISTING /tmp/ccChP33i.s 			page 20


 626               	.LVL55:
 627 0000 0F93      		push r16
 628               	.LCFI19:
 629               		.cfi_def_cfa_offset 4
 630               		.cfi_offset 16, -3
 631               	/* prologue: function */
 632               	/* frame size = 0 */
 633               	/* stack size = 1 */
 634               	.L__stack_usage = 1
 635               	.L71:
 454:/home/arhat109/Arduino/libraries/Arhat/arhat_twi2.h ****     _twiWaitReady();                                    // –ñ–¥–µ–º –∑–∞–≤–µ—Ä—à–µ–Ω–∏—è –ø—Ä–µ–¥—ã
 636               		.loc 1 454 0 discriminator 1
 637 0002 9091 0000 		lds r25,twiMode
 638 0006 92FF      		sbrs r25,2
 639 0008 00C0      		rjmp .L71
 640               		.loc 1 454 0 is_stmt 0 discriminator 2
 641 000a 9091 0000 		lds r25,twiMode
 642 000e 9B7F      		andi r25,lo8(-5)
 643 0010 9093 0000 		sts twiMode,r25
 455:/home/arhat109/Arduino/libraries/Arhat/arhat_twi2.h ****     _twiMT_Buffer(command, clength);
 644               		.loc 1 455 0 is_stmt 1 discriminator 2
 645 0014 7093 0000 		sts twiMT_Ptr+1,r23
 646 0018 6093 0000 		sts twiMT_Ptr,r22
 647 001c 4093 0000 		sts twiMT_Count,r20
 456:/home/arhat109/Arduino/libraries/Arhat/arhat_twi2.h ****     _twiRX_Buffer(data, dlength);
 648               		.loc 1 456 0 discriminator 2
 649 0020 3093 0000 		sts twiRX_Ptr+1,r19
 650 0024 2093 0000 		sts twiRX_Ptr,r18
 651 0028 0093 0000 		sts twiRX_Count,r16
 457:/home/arhat109/Arduino/libraries/Arhat/arhat_twi2.h **** 
 458:/home/arhat109/Arduino/libraries/Arhat/arhat_twi2.h ****     twiHookRestart = 0;                                 // —Ç–∏–ø–æ–≤–æ–π –ø–µ—Ä–µ—Ö–æ–¥ –Ω–∞ —á—Ç–
 652               		.loc 1 458 0 discriminator 2
 653 002c 1092 0000 		sts twiHookRestart+1,__zero_reg__
 654 0030 1092 0000 		sts twiHookRestart,__zero_reg__
 459:/home/arhat109/Arduino/libraries/Arhat/arhat_twi2.h ****     twiMode &= ~TWI_SEND_STOP;                          // —Ä–µ—Å—Ç–∞—Ä—Ç –ø–æ—Å–ª–µ –æ—Ç–ø—Ä–∞–≤–∫
 655               		.loc 1 459 0 discriminator 2
 656 0034 9091 0000 		lds r25,twiMode
 657 0038 9D7F      		andi r25,lo8(-3)
 658 003a 9093 0000 		sts twiMode,r25
 460:/home/arhat109/Arduino/libraries/Arhat/arhat_twi2.h ****     twiSLARW = (address<<1 | TWI_WRITE);                // –°–Ω–∞—á–∞–ª–∞ —Ä–µ–∂–∏–º –ø–µ—Ä–µ–¥–∞—á
 659               		.loc 1 460 0 discriminator 2
 660 003e 880F      		lsl r24
 661               	.LVL56:
 662 0040 8093 0000 		sts twiSLARW,r24
 461:/home/arhat109/Arduino/libraries/Arhat/arhat_twi2.h ****     TWCR = twiStart(twiMode & TWI_IS_SLAVE);
 663               		.loc 1 461 0 discriminator 2
 664 0044 8091 0000 		lds r24,twiMode
 665 0048 80FF      		sbrs r24,0
 666 004a 00C0      		rjmp .L73
 667               		.loc 1 461 0 is_stmt 0
 668 004c 85EE      		ldi r24,lo8(-27)
 669 004e 00C0      		rjmp .L72
 670               	.L73:
 671 0050 85EA      		ldi r24,lo8(-91)
 672               	.L72:
 673               		.loc 1 461 0 discriminator 3
 674 0052 8093 BC00 		sts 188,r24
GAS LISTING /tmp/ccChP33i.s 			page 21


 675               	/* epilogue start */
 462:/home/arhat109/Arduino/libraries/Arhat/arhat_twi2.h **** }
 676               		.loc 1 462 0 is_stmt 1 discriminator 3
 677 0056 0F91      		pop r16
 678               	.LVL57:
 679 0058 0895      		ret
 680               		.cfi_endproc
 681               	.LFE110:
 682               		.size	twiRAW, .-twiRAW
 683               		.section	.text.lcdPrepare,"ax",@progbits
 684               	.global	lcdPrepare
 685               		.type	lcdPrepare, @function
 686               	lcdPrepare:
 687               	.LFB111:
 688               		.file 2 "LCD1602ex.ino"
   1:LCD1602ex.ino **** 
 689               		.loc 2 490 0
 690               		.cfi_startproc
 691               	.LVL58:
 692               	/* prologue: function */
 693               	/* frame size = 0 */
 694               	/* stack size = 0 */
 695               	.L__stack_usage = 0
 696               	.LBB8:
 697               		.loc 2 491 0
 698 0000 2091 0000 		lds r18,lcdBackLight
 699 0004 982F      		mov r25,r24
 700 0006 907F      		andi r25,lo8(-16)
 701 0008 922B      		or r25,r18
 702               	.LVL59:
 703               		.loc 2 493 0
 704 000a 6111      		cpse r22,__zero_reg__
 705               		.loc 2 493 0 is_stmt 0 discriminator 1
 706 000c 9160      		ori r25,lo8(1)
 707               	.LVL60:
 708               	.L75:
 709               		.loc 2 494 0 is_stmt 1
 710 000e 9093 0000 		sts lcdBuffer,r25
 711 0012 9093 0000 		sts lcdBuffer+2,r25
 712               	.LVL61:
 713               		.loc 2 495 0
 714 0016 9460      		ori r25,lo8(4)
 715               	.LVL62:
 716               		.loc 2 496 0
 717 0018 9093 0000 		sts lcdBuffer+1,r25
 718               		.loc 2 498 0
 719 001c 30E1      		ldi r19,lo8(16)
 720 001e 839F      		mul r24,r19
 721 0020 C001      		movw r24,r0
 722 0022 1124      		clr __zero_reg__
 723               	.LVL63:
 724 0024 822B      		or r24,r18
 725               	.LVL64:
 726               		.loc 2 500 0
 727 0026 6111      		cpse r22,__zero_reg__
 728               		.loc 2 500 0 is_stmt 0 discriminator 1
 729 0028 8160      		ori r24,lo8(1)
GAS LISTING /tmp/ccChP33i.s 			page 22


 730               	.LVL65:
 731               	.L76:
 732               		.loc 2 501 0 is_stmt 1
 733 002a 8093 0000 		sts lcdBuffer+3,r24
 734 002e 8093 0000 		sts lcdBuffer+5,r24
 735               	.LVL66:
 736               		.loc 2 502 0
 737 0032 8460      		ori r24,lo8(4)
 738               	.LVL67:
 739               		.loc 2 503 0
 740 0034 8093 0000 		sts lcdBuffer+4,r24
 741 0038 0895      		ret
 742               	.LBE8:
 743               		.cfi_endproc
 744               	.LFE111:
 745               		.size	lcdPrepare, .-lcdPrepare
 746               		.section	.text.lcdWrite,"ax",@progbits
 747               	.global	lcdWrite
 748               		.type	lcdWrite, @function
 749               	lcdWrite:
 750               	.LFB112:
 751               		.loc 2 511 0
 752               		.cfi_startproc
 753               	.LVL68:
 754 0000 1F93      		push r17
 755               	.LCFI20:
 756               		.cfi_def_cfa_offset 4
 757               		.cfi_offset 17, -3
 758 0002 CF93      		push r28
 759               	.LCFI21:
 760               		.cfi_def_cfa_offset 5
 761               		.cfi_offset 28, -4
 762 0004 DF93      		push r29
 763               	.LCFI22:
 764               		.cfi_def_cfa_offset 6
 765               		.cfi_offset 29, -5
 766               	/* prologue: function */
 767               	/* frame size = 0 */
 768               	/* stack size = 3 */
 769               	.L__stack_usage = 3
 770 0006 162F      		mov r17,r22
 771               	.LVL69:
 772               	.LBB9:
 773               		.loc 2 515 0
 774 0008 2091 0000 		lds r18,twiMode
 775 000c 2260      		ori r18,lo8(2)
 776 000e 2093 0000 		sts twiMode,r18
 777               		.loc 2 516 0
 778 0012 C82F      		mov r28,r24
 779 0014 D92F      		mov r29,r25
 780 0016 180F      		add r17,r24
 781               	.LVL70:
 782               	.L84:
 783               		.loc 2 516 0 is_stmt 0 discriminator 1
 784 0018 1C17      		cp r17,r28
 785 001a 01F0      		breq .L86
 786               	.LVL71:
GAS LISTING /tmp/ccChP33i.s 			page 23


 787               		.loc 2 517 0 is_stmt 1
 788 001c 61E0      		ldi r22,lo8(1)
 789 001e 8991      		ld r24,Y+
 790               	.LVL72:
 791 0020 0E94 0000 		call lcdPrepare
 792               	.LVL73:
 793 0024 46E0      		ldi r20,lo8(6)
 794 0026 60E0      		ldi r22,lo8(lcdBuffer)
 795 0028 70E0      		ldi r23,hi8(lcdBuffer)
 796 002a 8091 0000 		lds r24,lcdAddress
 797 002e 0E94 0000 		call twiWrite
 798               	.LVL74:
 799 0032 85E0      		ldi r24,lo8(5)
 800 0034 90E0      		ldi r25,0
 801 0036 0E94 0000 		call time_delay16
 802               	.LVL75:
 803 003a 00C0      		rjmp .L84
 804               	.LVL76:
 805               	.L86:
 806               	/* epilogue start */
 807               	.LBE9:
 808               		.loc 2 518 0
 809 003c DF91      		pop r29
 810 003e CF91      		pop r28
 811               	.LVL77:
 812 0040 1F91      		pop r17
 813 0042 0895      		ret
 814               		.cfi_endproc
 815               	.LFE112:
 816               		.size	lcdWrite, .-lcdWrite
 817               		.section	.text.lcdInit,"ax",@progbits
 818               	.global	lcdInit
 819               		.type	lcdInit, @function
 820               	lcdInit:
 821               	.LFB113:
 822               		.loc 2 524 0
 823               		.cfi_startproc
 824               	/* prologue: function */
 825               	/* frame size = 0 */
 826               	/* stack size = 0 */
 827               	.L__stack_usage = 0
 828               		.loc 2 525 0
 829 0000 60E0      		ldi r22,0
 830 0002 8091 0000 		lds r24,lcdModes
 831 0006 0E94 0000 		call lcdPrepare
 832               	.LVL78:
 833 000a 46E0      		ldi r20,lo8(6)
 834 000c 60E0      		ldi r22,lo8(lcdBuffer)
 835 000e 70E0      		ldi r23,hi8(lcdBuffer)
 836 0010 8091 0000 		lds r24,lcdAddress
 837 0014 0E94 0000 		call twiWrite
 838               	.LVL79:
 839 0018 85E0      		ldi r24,lo8(5)
 840 001a 90E0      		ldi r25,0
 841 001c 0E94 0000 		call time_delay16
 842               	.LVL80:
 843               		.loc 2 526 0
GAS LISTING /tmp/ccChP33i.s 			page 24


 844 0020 60E0      		ldi r22,0
 845 0022 8091 0000 		lds r24,lcdShows
 846 0026 0E94 0000 		call lcdPrepare
 847               	.LVL81:
 848 002a 46E0      		ldi r20,lo8(6)
 849 002c 60E0      		ldi r22,lo8(lcdBuffer)
 850 002e 70E0      		ldi r23,hi8(lcdBuffer)
 851 0030 8091 0000 		lds r24,lcdAddress
 852 0034 0E94 0000 		call twiWrite
 853               	.LVL82:
 854 0038 85E0      		ldi r24,lo8(5)
 855 003a 90E0      		ldi r25,0
 856 003c 0E94 0000 		call time_delay16
 857               	.LVL83:
 858               		.loc 2 527 0
 859 0040 60E0      		ldi r22,0
 860 0042 8091 0000 		lds r24,lcdShifts
 861 0046 0E94 0000 		call lcdPrepare
 862               	.LVL84:
 863 004a 46E0      		ldi r20,lo8(6)
 864 004c 60E0      		ldi r22,lo8(lcdBuffer)
 865 004e 70E0      		ldi r23,hi8(lcdBuffer)
 866 0050 8091 0000 		lds r24,lcdAddress
 867 0054 0E94 0000 		call twiWrite
 868               	.LVL85:
 869 0058 85E0      		ldi r24,lo8(5)
 870 005a 90E0      		ldi r25,0
 871 005c 0E94 0000 		call time_delay16
 872               	.LVL86:
 873               		.loc 2 528 0
 874 0060 60E0      		ldi r22,0
 875 0062 81E0      		ldi r24,lo8(1)
 876 0064 0E94 0000 		call lcdPrepare
 877               	.LVL87:
 878 0068 46E0      		ldi r20,lo8(6)
 879 006a 60E0      		ldi r22,lo8(lcdBuffer)
 880 006c 70E0      		ldi r23,hi8(lcdBuffer)
 881 006e 8091 0000 		lds r24,lcdAddress
 882 0072 0E94 0000 		call twiWrite
 883               	.LVL88:
 884 0076 85E0      		ldi r24,lo8(5)
 885 0078 90E0      		ldi r25,0
 886 007a 0E94 0000 		call time_delay16
 887               	.LVL89:
 888 007e 80E1      		ldi r24,lo8(16)
 889 0080 90E0      		ldi r25,0
 890 0082 0E94 0000 		call time_delay16
 891               	.LVL90:
 892               		.loc 2 529 0
 893 0086 60E0      		ldi r22,0
 894 0088 82E0      		ldi r24,lo8(2)
 895 008a 0E94 0000 		call lcdPrepare
 896               	.LVL91:
 897 008e 46E0      		ldi r20,lo8(6)
 898 0090 60E0      		ldi r22,lo8(lcdBuffer)
 899 0092 70E0      		ldi r23,hi8(lcdBuffer)
 900 0094 8091 0000 		lds r24,lcdAddress
GAS LISTING /tmp/ccChP33i.s 			page 25


 901 0098 0E94 0000 		call twiWrite
 902               	.LVL92:
 903 009c 85E0      		ldi r24,lo8(5)
 904 009e 90E0      		ldi r25,0
 905 00a0 0C94 0000 		jmp time_delay16
 906               	.LVL93:
 907               		.cfi_endproc
 908               	.LFE113:
 909               		.size	lcdInit, .-lcdInit
 910               		.section	.text.lcdSetup,"ax",@progbits
 911               	.global	lcdSetup
 912               		.type	lcdSetup, @function
 913               	lcdSetup:
 914               	.LFB114:
 915               		.loc 2 536 0
 916               		.cfi_startproc
 917               	.LVL94:
 918 0000 CF93      		push r28
 919               	.LCFI23:
 920               		.cfi_def_cfa_offset 4
 921               		.cfi_offset 28, -3
 922               	/* prologue: function */
 923               	/* frame size = 0 */
 924               	/* stack size = 1 */
 925               	.L__stack_usage = 1
 926 0002 C42F      		mov r28,r20
 927               		.loc 2 537 0
 928 0004 8093 0000 		sts lcdAddress,r24
 929               		.loc 2 538 0
 930 0008 6093 0000 		sts lcdCols,r22
 931               		.loc 2 539 0
 932 000c 4093 0000 		sts lcdRows,r20
 933               		.loc 2 540 0
 934 0010 2223      		tst r18
 935 0012 01F0      		breq .L91
 936 0014 88E0      		ldi r24,lo8(8)
 937               	.LVL95:
 938 0016 00C0      		rjmp .L89
 939               	.LVL96:
 940               	.L91:
 941 0018 80E0      		ldi r24,0
 942               	.LVL97:
 943               	.L89:
 944               		.loc 2 540 0 is_stmt 0 discriminator 3
 945 001a 8093 0000 		sts lcdBackLight,r24
 946               		.loc 2 541 0 is_stmt 1 discriminator 3
 947 001e 80E2      		ldi r24,lo8(32)
 948 0020 8093 0000 		sts lcdModes,r24
 949               		.loc 2 542 0 discriminator 3
 950 0024 86E0      		ldi r24,lo8(6)
 951 0026 8093 0000 		sts lcdShifts,r24
 952               		.loc 2 543 0 discriminator 3
 953 002a 8CE0      		ldi r24,lo8(12)
 954 002c 8093 0000 		sts lcdShows,r24
 955               		.loc 2 547 0 discriminator 3
 956 0030 46E0      		ldi r20,lo8(6)
 957               	.LVL98:
GAS LISTING /tmp/ccChP33i.s 			page 26


 958 0032 60EA      		ldi r22,lo8(-96)
 959 0034 76E8      		ldi r23,lo8(-122)
 960 0036 81E0      		ldi r24,lo8(1)
 961 0038 90E0      		ldi r25,0
 962               	.LVL99:
 963 003a 0E94 0000 		call twiSetup
 964               	.LVL100:
 965               		.loc 2 551 0 discriminator 3
 966 003e C230      		cpi r28,lo8(2)
 967 0040 00F0      		brlo .L90
 968               		.loc 2 551 0 is_stmt 0 discriminator 1
 969 0042 8091 0000 		lds r24,lcdModes
 970 0046 8860      		ori r24,lo8(8)
 971 0048 8093 0000 		sts lcdModes,r24
 972               	.L90:
 973               		.loc 2 555 0 is_stmt 1
 974 004c 60E0      		ldi r22,0
 975 004e 80E3      		ldi r24,lo8(48)
 976 0050 0E94 0000 		call lcdPrepare
 977               	.LVL101:
 978               		.loc 2 557 0
 979 0054 8FE0      		ldi r24,lo8(15)
 980 0056 90E0      		ldi r25,0
 981 0058 0E94 0000 		call time_delay16
 982               	.LVL102:
 983               		.loc 2 558 0
 984 005c 43E0      		ldi r20,lo8(3)
 985 005e 60E0      		ldi r22,lo8(lcdBuffer)
 986 0060 70E0      		ldi r23,hi8(lcdBuffer)
 987 0062 8091 0000 		lds r24,lcdAddress
 988 0066 0E94 0000 		call twiWrite
 989               	.LVL103:
 990 006a 85E0      		ldi r24,lo8(5)
 991 006c 90E0      		ldi r25,0
 992 006e 0E94 0000 		call time_delay16
 993               	.LVL104:
 994               		.loc 2 559 0
 995 0072 85E0      		ldi r24,lo8(5)
 996 0074 90E0      		ldi r25,0
 997 0076 0E94 0000 		call time_delay16
 998               	.LVL105:
 999               		.loc 2 560 0
 1000 007a 43E0      		ldi r20,lo8(3)
 1001 007c 60E0      		ldi r22,lo8(lcdBuffer)
 1002 007e 70E0      		ldi r23,hi8(lcdBuffer)
 1003 0080 8091 0000 		lds r24,lcdAddress
 1004 0084 0E94 0000 		call twiWrite
 1005               	.LVL106:
 1006 0088 85E0      		ldi r24,lo8(5)
 1007 008a 90E0      		ldi r25,0
 1008 008c 0E94 0000 		call time_delay16
 1009               	.LVL107:
 1010               		.loc 2 561 0
 1011 0090 80E9      		ldi r24,lo8(-112)
 1012 0092 91E0      		ldi r25,lo8(1)
 1013               	/* #APP */
 1014               	 ;  561 "LCD1602ex.ino" 1
GAS LISTING /tmp/ccChP33i.s 			page 27


 1015 0094 0197      		1: sbiw r24,1 
 1016 0096 01F4      		brne 1b
 1017               		
 1018               	 ;  0 "" 2
 1019               		.loc 2 562 0
 1020               	/* #NOAPP */
 1021 0098 43E0      		ldi r20,lo8(3)
 1022 009a 60E0      		ldi r22,lo8(lcdBuffer)
 1023 009c 70E0      		ldi r23,hi8(lcdBuffer)
 1024 009e 8091 0000 		lds r24,lcdAddress
 1025 00a2 0E94 0000 		call twiWrite
 1026               	.LVL108:
 1027 00a6 85E0      		ldi r24,lo8(5)
 1028 00a8 90E0      		ldi r25,0
 1029 00aa 0E94 0000 		call time_delay16
 1030               	.LVL109:
 1031               		.loc 2 564 0
 1032 00ae 60E0      		ldi r22,0
 1033 00b0 80E2      		ldi r24,lo8(32)
 1034 00b2 0E94 0000 		call lcdPrepare
 1035               	.LVL110:
 1036               		.loc 2 565 0
 1037 00b6 43E0      		ldi r20,lo8(3)
 1038 00b8 60E0      		ldi r22,lo8(lcdBuffer)
 1039 00ba 70E0      		ldi r23,hi8(lcdBuffer)
 1040 00bc 8091 0000 		lds r24,lcdAddress
 1041 00c0 0E94 0000 		call twiWrite
 1042               	.LVL111:
 1043 00c4 85E0      		ldi r24,lo8(5)
 1044 00c6 90E0      		ldi r25,0
 1045 00c8 0E94 0000 		call time_delay16
 1046               	.LVL112:
 1047               		.loc 2 567 0
 1048 00cc 0E94 0000 		call lcdInit
 1049               	.LVL113:
 1050               		.loc 2 568 0
 1051 00d0 84EF      		ldi r24,lo8(-12)
 1052 00d2 91E0      		ldi r25,lo8(1)
 1053               	/* epilogue start */
 1054               		.loc 2 569 0
 1055 00d4 CF91      		pop r28
 1056               	.LVL114:
 1057               		.loc 2 568 0
 1058 00d6 0C94 0000 		jmp time_delay16
 1059               	.LVL115:
 1060               		.cfi_endproc
 1061               	.LFE114:
 1062               		.size	lcdSetup, .-lcdSetup
 1063               		.section	.rodata.str1.1,"aMS",@progbits,1
 1064               	.LC0:
 1065 0000 4865 6C6C 		.string	"Hello, AAAAAA"
 1065      6F2C 2041 
 1065      4141 4141 
 1065      4100 
 1066               		.section	.text.setup,"ax",@progbits
 1067               	.global	setup
 1068               		.type	setup, @function
GAS LISTING /tmp/ccChP33i.s 			page 28


 1069               	setup:
 1070               	.LFB115:
 1071               		.loc 2 577 0
 1072               		.cfi_startproc
 1073               	/* prologue: function */
 1074               	/* frame size = 0 */
 1075               	/* stack size = 0 */
 1076               	.L__stack_usage = 0
 1077               	.LBB10:
 1078               		.loc 2 581 0
 1079 0000 21E0      		ldi r18,lo8(1)
 1080 0002 42E0      		ldi r20,lo8(2)
 1081 0004 60E1      		ldi r22,lo8(16)
 1082 0006 87E2      		ldi r24,lo8(39)
 1083 0008 0E94 0000 		call lcdSetup
 1084               	.LVL116:
 1085               		.loc 2 582 0
 1086 000c 6DE0      		ldi r22,lo8(13)
 1087 000e 80E0      		ldi r24,lo8(.LC0)
 1088 0010 90E0      		ldi r25,hi8(.LC0)
 1089 0012 0C94 0000 		jmp lcdWrite
 1090               	.LVL117:
 1091               	.LBE10:
 1092               		.cfi_endproc
 1093               	.LFE115:
 1094               		.size	setup, .-setup
 1095               		.section	.text.loop,"ax",@progbits
 1096               	.global	loop
 1097               		.type	loop, @function
 1098               	loop:
 1099               	.LFB116:
 1100               		.loc 2 588 0
 1101               		.cfi_startproc
 1102               	/* prologue: function */
 1103               	/* frame size = 0 */
 1104               	/* stack size = 0 */
 1105               	.L__stack_usage = 0
 1106 0000 0895      		ret
 1107               		.cfi_endproc
 1108               	.LFE116:
 1109               		.size	loop, .-loop
 1110               	.global	lcdBuffer
 1111               		.section	.bss.lcdBuffer,"aw",@nobits
 1112               		.type	lcdBuffer, @object
 1113               		.size	lcdBuffer, 6
 1114               	lcdBuffer:
 1115 0000 0000 0000 		.zero	6
 1115      0000 
 1116               	.global	lcdRows
 1117               		.section	.data.lcdRows,"aw",@progbits
 1118               		.type	lcdRows, @object
 1119               		.size	lcdRows, 1
 1120               	lcdRows:
 1121 0000 02        		.byte	2
 1122               	.global	lcdCols
 1123               		.section	.data.lcdCols,"aw",@progbits
 1124               		.type	lcdCols, @object
GAS LISTING /tmp/ccChP33i.s 			page 29


 1125               		.size	lcdCols, 1
 1126               	lcdCols:
 1127 0000 10        		.byte	16
 1128               	.global	lcdAddress
 1129               		.section	.data.lcdAddress,"aw",@progbits
 1130               		.type	lcdAddress, @object
 1131               		.size	lcdAddress, 1
 1132               	lcdAddress:
 1133 0000 27        		.byte	39
 1134               	.global	lcdBackLight
 1135               		.section	.data.lcdBackLight,"aw",@progbits
 1136               		.type	lcdBackLight, @object
 1137               		.size	lcdBackLight, 1
 1138               	lcdBackLight:
 1139 0000 08        		.byte	8
 1140               	.global	lcdShows
 1141               		.section	.data.lcdShows,"aw",@progbits
 1142               		.type	lcdShows, @object
 1143               		.size	lcdShows, 1
 1144               	lcdShows:
 1145 0000 08        		.byte	8
 1146               	.global	lcdShifts
 1147               		.section	.data.lcdShifts,"aw",@progbits
 1148               		.type	lcdShifts, @object
 1149               		.size	lcdShifts, 1
 1150               	lcdShifts:
 1151 0000 06        		.byte	6
 1152               	.global	lcdModes
 1153               		.section	.data.lcdModes,"aw",@progbits
 1154               		.type	lcdModes, @object
 1155               		.size	lcdModes, 1
 1156               	lcdModes:
 1157 0000 30        		.byte	48
 1158               		.section	.bss._ZL12twiStatistic,"aw",@nobits
 1159               		.type	_ZL12twiStatistic, @object
 1160               		.size	_ZL12twiStatistic, 20
 1161               	_ZL12twiStatistic:
 1162 0000 0000 0000 		.zero	20
 1162      0000 0000 
 1162      0000 0000 
 1162      0000 0000 
 1162      0000 0000 
 1163               	.global	twiSlaveWriter
 1164               		.section	.bss.twiSlaveWriter,"aw",@nobits
 1165               		.type	twiSlaveWriter, @object
 1166               		.size	twiSlaveWriter, 2
 1167               	twiSlaveWriter:
 1168 0000 0000      		.zero	2
 1169               	.global	twiSlaveReader
 1170               		.section	.bss.twiSlaveReader,"aw",@nobits
 1171               		.type	twiSlaveReader, @object
 1172               		.size	twiSlaveReader, 2
 1173               	twiSlaveReader:
 1174 0000 0000      		.zero	2
 1175               	.global	twiMasterReader
 1176               		.section	.bss.twiMasterReader,"aw",@nobits
 1177               		.type	twiMasterReader, @object
GAS LISTING /tmp/ccChP33i.s 			page 30


 1178               		.size	twiMasterReader, 2
 1179               	twiMasterReader:
 1180 0000 0000      		.zero	2
 1181               	.global	twiHookRestart
 1182               		.section	.bss.twiHookRestart,"aw",@nobits
 1183               		.type	twiHookRestart, @object
 1184               		.size	twiHookRestart, 2
 1185               	twiHookRestart:
 1186 0000 0000      		.zero	2
 1187               	.global	twiST_Ptr
 1188               		.section	.bss.twiST_Ptr,"aw",@nobits
 1189               		.type	twiST_Ptr, @object
 1190               		.size	twiST_Ptr, 2
 1191               	twiST_Ptr:
 1192 0000 0000      		.zero	2
 1193               	.global	twiST_Count
 1194               		.section	.bss.twiST_Count,"aw",@nobits
 1195               		.type	twiST_Count, @object
 1196               		.size	twiST_Count, 1
 1197               	twiST_Count:
 1198 0000 00        		.zero	1
 1199               	.global	twiRX_Ptr
 1200               		.section	.bss.twiRX_Ptr,"aw",@nobits
 1201               		.type	twiRX_Ptr, @object
 1202               		.size	twiRX_Ptr, 2
 1203               	twiRX_Ptr:
 1204 0000 0000      		.zero	2
 1205               	.global	twiRX_Count
 1206               		.section	.bss.twiRX_Count,"aw",@nobits
 1207               		.type	twiRX_Count, @object
 1208               		.size	twiRX_Count, 1
 1209               	twiRX_Count:
 1210 0000 00        		.zero	1
 1211               	.global	twiMT_Ptr
 1212               		.section	.bss.twiMT_Ptr,"aw",@nobits
 1213               		.type	twiMT_Ptr, @object
 1214               		.size	twiMT_Ptr, 2
 1215               	twiMT_Ptr:
 1216 0000 0000      		.zero	2
 1217               	.global	twiMT_Count
 1218               		.section	.bss.twiMT_Count,"aw",@nobits
 1219               		.type	twiMT_Count, @object
 1220               		.size	twiMT_Count, 1
 1221               	twiMT_Count:
 1222 0000 00        		.zero	1
 1223               	.global	twiSLARW
 1224               		.section	.bss.twiSLARW,"aw",@nobits
 1225               		.type	twiSLARW, @object
 1226               		.size	twiSLARW, 1
 1227               	twiSLARW:
 1228 0000 00        		.zero	1
 1229               	.global	twiState
 1230               		.section	.bss.twiState,"aw",@nobits
 1231               		.type	twiState, @object
 1232               		.size	twiState, 1
 1233               	twiState:
 1234 0000 00        		.zero	1
GAS LISTING /tmp/ccChP33i.s 			page 31


 1235               	.global	twiMode
 1236               		.section	.bss.twiMode,"aw",@nobits
 1237               		.type	twiMode, @object
 1238               		.size	twiMode, 1
 1239               	twiMode:
 1240 0000 00        		.zero	1
 1241               		.text
 1242               	.Letext0:
 1243               		.file 3 "/home/arhat109/progs/arduino-1.6.4/hardware/tools/avr/avr/include/stdint.h"
 1244               		.file 4 "/home/arhat109/Arduino/libraries/Arhat/arhat.h"